

HI-TECH Software PIC LITE Macro Assembler V9.82 build 9453 
                                                                                               Fri May 17 13:00:49 2019

HI-TECH Software Omniscient Code Generator (Lite mode) build 9453
     1  0000                     opt subtitle "HI-TECH Software Omniscient Code Generator (Lite mode) build 9453"
     2                           
     3                           opt pagewidth 120
     4                           
     5                           	opt lm
     6                           
     7                           	processor	16F887
     8                           clrc	macro
     9                           	bcf	3,0
    10  0000                     	endm
    11                           clrz	macro
    12                           	bcf	3,2
    13  0000                     	endm
    14                           setc	macro
    15                           	bsf	3,0
    16  0000                     	endm
    17                           setz	macro
    18                           	bsf	3,2
    19  0000                     	endm
    20                           skipc	macro
    21                           	btfss	3,0
    22  0000                     	endm
    23                           skipz	macro
    24                           	btfss	3,2
    25  0000                     	endm
    26                           skipnc	macro
    27                           	btfsc	3,0
    28  0000                     	endm
    29                           skipnz	macro
    30                           	btfsc	3,2
    31  0000                     	endm
    32  0000                     indf	equ	0
    33  0000                     indf0	equ	0
    34  0002                     pc	equ	2
    35  0002                     pcl	equ	2
    36  0003                     status	equ	3
    37  0004                     fsr	equ	4
    38  0004                     fsr0	equ	4
    39  0001                     c	equ	1
    40  0000                     z	equ	0
    41  000A                     pclath	equ	10
    42                           # 6 "C:\PIC_PROGS\C\PWM\PWM.c"
    43                           	psect config,class=CONFIG,delta=2 ;#
    44                           # 6 "C:\PIC_PROGS\C\PWM\PWM.c"
    45  2007  E0D4               	dw 0xFFFC & 0xFFF7 & 0xFFFF & 0xFFDF & 0xFFFF & 0xFFFF & 0xFCFF & 0xFBFF & 0xF7FF & 0xE
                                 FFF & 0xFFFF ;#
    46                           # 7 "C:\PIC_PROGS\C\PWM\PWM.c"
    47                           	psect config,class=CONFIG,delta=2 ;#
    48                           # 7 "C:\PIC_PROGS\C\PWM\PWM.c"
    49  2008  FFFF               	dw 0xFFFF & 0xFFFF ;#
    50                           	FNCALL	_main,_lcd_init
    51                           	FNCALL	_main,_lcd_clear
    52                           	FNCALL	_main,_lcd_puts
    53                           	FNCALL	_main,_pause
    54                           	FNCALL	_main,___awtoft
    55                           	FNCALL	_main,___ftmul
    56                           	FNCALL	_main,_lcd_goto
    57                           	FNCALL	_main,_sprintf
    58                           	FNCALL	_main,_lcd_putch
    59                           	FNCALL	_lcd_init,_pause
    60                           	FNCALL	_lcd_init,_lcd_write
    61                           	FNCALL	_lcd_init,_lcd_clear
    62                           	FNCALL	_lcd_putch,_lcd_write
    63                           	FNCALL	_sprintf,___wmul
    64                           	FNCALL	_sprintf,_isdigit
    65                           	FNCALL	_sprintf,___ftge
    66                           	FNCALL	_sprintf,___ftneg
    67                           	FNCALL	_sprintf,___awdiv
    68                           	FNCALL	_sprintf,_scale
    69                           	FNCALL	_sprintf,___ftmul
    70                           	FNCALL	_sprintf,_fround
    71                           	FNCALL	_sprintf,___ftadd
    72                           	FNCALL	_sprintf,___fttol
    73                           	FNCALL	_sprintf,__div_to_l_
    74                           	FNCALL	_sprintf,__tdiv_to_l_
    75                           	FNCALL	_sprintf,___lltoft
    76                           	FNCALL	_sprintf,___ftsub
    77                           	FNCALL	_sprintf,___lldiv
    78                           	FNCALL	_sprintf,___llmod
    79                           	FNCALL	_lcd_goto,_lcd_write
    80                           	FNCALL	_lcd_puts,_lcd_write
    81                           	FNCALL	_lcd_clear,_lcd_write
    82                           	FNCALL	_lcd_clear,_pause
    83                           	FNCALL	___ftsub,___ftadd
    84                           	FNCALL	_scale,___awmod
    85                           	FNCALL	_scale,___bmul
    86                           	FNCALL	_scale,___awdiv
    87                           	FNCALL	_scale,___ftmul
    88                           	FNCALL	_fround,___awmod
    89                           	FNCALL	_fround,___bmul
    90                           	FNCALL	_fround,___awdiv
    91                           	FNCALL	_fround,___ftmul
    92                           	FNCALL	_lcd_write,_pause
    93                           	FNCALL	___lltoft,___ftpack
    94                           	FNCALL	___awtoft,___ftpack
    95                           	FNCALL	___ftmul,___ftpack
    96                           	FNCALL	___ftadd,___ftpack
    97                           	FNCALL	_pause,_msecbase
    98                           	FNROOT	_main
    99                           	global	_dpowers
   100                           psect	strings,class=STRING,delta=2
   101                           global __pstrings
   102  1000                     __pstrings:
   103                           ;	global	stringdir,stringtab,__stringbase
   104  1000                     stringtab:
   105                           ;	String table - string pointers are 1 byte each
   106  1000  1BFF               	btfsc	(btemp+1),7
   107  1001  280A               	ljmp	stringcode
   108  1002  1383               	bcf	status,7
   109  1003  187F               	btfsc	(btemp+1),0
   110  1004  1783               	bsf	status,7
   111  1005  0800               	movf	indf,w
   112  1006  0A84               	incf fsr
   113  1007  1903               skipnz
   114  1008  0AFF               incf btemp+1
   115  1009  0008               	return
   116  100A                     stringcode:stringdir:
      + 100A                     stringdir:	
   117  100A  3010               movlw high(stringdir)
   118  100B  008A               movwf pclath
   119  100C  0804               movf fsr,w
   120  100D  0A84               incf fsr
   121  100E  0782               	addwf pc
   122  100F                     __stringbase:
   123  100F  3400               	retlw	0
   124                           psect	strings
   125                           	file	"C:\Program Files (x86)\HI-TECH Software\PICC\9.82\lib\doprnt.c"
   126                           	line	350
   127  1010                     _dpowers:
   128  1010  3401               	retlw	01h
   129  1011  3400               	retlw	0
   130  1012  3400               	retlw	0
   131  1013  3400               	retlw	0
   132                           
   133  1014  340A               	retlw	0Ah
   134  1015  3400               	retlw	0
   135  1016  3400               	retlw	0
   136  1017  3400               	retlw	0
   137                           
   138  1018  3464               	retlw	064h
   139  1019  3400               	retlw	0
   140  101A  3400               	retlw	0
   141  101B  3400               	retlw	0
   142                           
   143  101C  34E8               	retlw	0E8h
   144  101D  3403               	retlw	03h
   145  101E  3400               	retlw	0
   146  101F  3400               	retlw	0
   147                           
   148  1020  3410               	retlw	010h
   149  1021  3427               	retlw	027h
   150  1022  3400               	retlw	0
   151  1023  3400               	retlw	0
   152                           
   153  1024  34A0               	retlw	0A0h
   154  1025  3486               	retlw	086h
   155  1026  3401               	retlw	01h
   156  1027  3400               	retlw	0
   157                           
   158  1028  3440               	retlw	040h
   159  1029  3442               	retlw	042h
   160  102A  340F               	retlw	0Fh
   161  102B  3400               	retlw	0
   162                           
   163  102C  3480               	retlw	080h
   164  102D  3496               	retlw	096h
   165  102E  3498               	retlw	098h
   166  102F  3400               	retlw	0
   167                           
   168  1030  3400               	retlw	0
   169  1031  34E1               	retlw	0E1h
   170  1032  34F5               	retlw	0F5h
   171  1033  3405               	retlw	05h
   172                           
   173  1034  3400               	retlw	0
   174  1035  34CA               	retlw	0CAh
   175  1036  349A               	retlw	09Ah
   176  1037  343B               	retlw	03Bh
   177                           
   178                           	global	__npowers_
   179                           psect	strings
   180                           	file	"C:\Program Files (x86)\HI-TECH Software\PICC\9.82\sources\powers.c"
   181                           	line	39
   182  1038                     __npowers_:
   183  1038  3400               	retlw	0x0
   184  1039  3480               	retlw	0x80
   185  103A  343F               	retlw	0x3f
   186                           
   187  103B  34CD               	retlw	0xcd
   188  103C  34CC               	retlw	0xcc
   189  103D  343D               	retlw	0x3d
   190                           
   191  103E  34D7               	retlw	0xd7
   192  103F  3423               	retlw	0x23
   193  1040  343C               	retlw	0x3c
   194                           
   195  1041  3412               	retlw	0x12
   196  1042  3483               	retlw	0x83
   197  1043  343A               	retlw	0x3a
   198                           
   199  1044  34B7               	retlw	0xb7
   200  1045  34D1               	retlw	0xd1
   201  1046  3438               	retlw	0x38
   202                           
   203  1047  34C6               	retlw	0xc6
   204  1048  3427               	retlw	0x27
   205  1049  3437               	retlw	0x37
   206                           
   207  104A  3438               	retlw	0x38
   208  104B  3486               	retlw	0x86
   209  104C  3435               	retlw	0x35
   210                           
   211  104D  34C0               	retlw	0xc0
   212  104E  34D6               	retlw	0xd6
   213  104F  3433               	retlw	0x33
   214                           
   215  1050  34CC               	retlw	0xcc
   216  1051  342B               	retlw	0x2b
   217  1052  3432               	retlw	0x32
   218                           
   219  1053  3470               	retlw	0x70
   220  1054  3489               	retlw	0x89
   221  1055  3430               	retlw	0x30
   222                           
   223  1056  34E7               	retlw	0xe7
   224  1057  34DB               	retlw	0xdb
   225  1058  342E               	retlw	0x2e
   226                           
   227  1059  34E5               	retlw	0xe5
   228  105A  343C               	retlw	0x3c
   229  105B  341E               	retlw	0x1e
   230                           
   231  105C  3442               	retlw	0x42
   232  105D  34A2               	retlw	0xa2
   233  105E  340D               	retlw	0xd
   234                           
   235                           	global	__powers_
   236                           psect	strings
   237                           	file	"C:\Program Files (x86)\HI-TECH Software\PICC\9.82\sources\powers.c"
   238                           	line	7
   239  105F                     __powers_:
   240  105F  3400               	retlw	0x0
   241  1060  3480               	retlw	0x80
   242  1061  343F               	retlw	0x3f
   243                           
   244  1062  3400               	retlw	0x0
   245  1063  3420               	retlw	0x20
   246  1064  3441               	retlw	0x41
   247                           
   248  1065  3400               	retlw	0x0
   249  1066  34C8               	retlw	0xc8
   250  1067  3442               	retlw	0x42
   251                           
   252  1068  3400               	retlw	0x0
   253  1069  347A               	retlw	0x7a
   254  106A  3444               	retlw	0x44
   255                           
   256  106B  3440               	retlw	0x40
   257  106C  341C               	retlw	0x1c
   258  106D  3446               	retlw	0x46
   259                           
   260  106E  3450               	retlw	0x50
   261  106F  34C3               	retlw	0xc3
   262  1070  3447               	retlw	0x47
   263                           
   264  1071  3424               	retlw	0x24
   265  1072  3474               	retlw	0x74
   266  1073  3449               	retlw	0x49
   267                           
   268  1074  3497               	retlw	0x97
   269  1075  3418               	retlw	0x18
   270  1076  344B               	retlw	0x4b
   271                           
   272  1077  34BC               	retlw	0xbc
   273  1078  34BE               	retlw	0xbe
   274  1079  344C               	retlw	0x4c
   275                           
   276  107A  346B               	retlw	0x6b
   277  107B  346E               	retlw	0x6e
   278  107C  344E               	retlw	0x4e
   279                           
   280  107D  3403               	retlw	0x3
   281  107E  3415               	retlw	0x15
   282  107F  3450               	retlw	0x50
   283                           
   284  1080  3479               	retlw	0x79
   285  1081  34AD               	retlw	0xad
   286  1082  3460               	retlw	0x60
   287                           
   288  1083  34F3               	retlw	0xf3
   289  1084  3449               	retlw	0x49
   290  1085  3471               	retlw	0x71
   291                           
   292                           	global	_dpowers
   293                           	global	__npowers_
   294                           	global	__powers_
   295                           	global	_read
   296                           	global	_VPA
   297                           	global	_VPB
   298                           	global	_adc
   299                           	global	_porcentaje
   300                           	global	_buffer
   301                           	global	_ADCON0
   302  001F                     _ADCON0	set	31
   303                           	global	_ADRESH
   304  001E                     _ADRESH	set	30
   305                           	global	_CCP1CON
   306  0017                     _CCP1CON	set	23
   307                           	global	_CCP2CON
   308  001D                     _CCP2CON	set	29
   309                           	global	_CCPR1L
   310  0015                     _CCPR1L	set	21
   311                           	global	_CCPR2L
   312  001B                     _CCPR2L	set	27
   313                           	global	_PORTD
   314  0008                     _PORTD	set	8
   315                           	global	_T2CON
   316  0012                     _T2CON	set	18
   317                           	global	_TMR0
   318  0001                     _TMR0	set	1
   319                           	global	_ADON
   320  00F8                     _ADON	set	248
   321                           	global	_CARRY
   322  0018                     _CARRY	set	24
   323                           	global	_GIE
   324  005F                     _GIE	set	95
   325                           	global	_GO_DONE
   326  00F9                     _GO_DONE	set	249
   327                           	global	_RA1
   328  0029                     _RA1	set	41
   329                           	global	_RA2
   330  002A                     _RA2	set	42
   331                           	global	_RA4
   332  002C                     _RA4	set	44
   333                           	global	_T0IF
   334  005A                     _T0IF	set	90
   335                           	global	_TMR2IF
   336  0061                     _TMR2IF	set	97
   337                           	global	_TMR2ON
   338  0092                     _TMR2ON	set	146
   339                           	global	_ADCON1
   340  009F                     _ADCON1	set	159
   341                           	global	_OPTION_REG
   342  0081                     _OPTION_REG	set	129
   343                           	global	_OSCCON
   344  008F                     _OSCCON	set	143
   345                           	global	_PR2
   346  0092                     _PR2	set	146
   347                           	global	_TRISA
   348  0085                     _TRISA	set	133
   349                           	global	_TRISB
   350  0086                     _TRISB	set	134
   351                           	global	_TRISC
   352  0087                     _TRISC	set	135
   353                           	global	_TRISD
   354  0088                     _TRISD	set	136
   355                           	global	_TRISE
   356  0089                     _TRISE	set	137
   357                           	global	_TMR2IE
   358  0461                     _TMR2IE	set	1121
   359                           	global	_EEADR
   360  010D                     _EEADR	set	269
   361                           	global	_EEDATA
   362  010C                     _EEDATA	set	268
   363                           	global	_ANSEL
   364  0188                     _ANSEL	set	392
   365                           	global	_ANSELH
   366  0189                     _ANSELH	set	393
   367                           	global	_EECON1
   368  018C                     _EECON1	set	396
   369                           	global	_EECON2
   370  018D                     _EECON2	set	397
   371                           	global	_RD
   372  0C60                     _RD	set	3168
   373                           	global	_WR
   374  0C61                     _WR	set	3169
   375                           	global	_WREN
   376  0C62                     _WREN	set	3170
   377                           	global	_ADRESL
   378  009E                     _ADRESL	set	158
   379                           	
   380  1086                     STR_1:	
   381  1086  3449               	retlw	73	;'I'
   382  1087  346E               	retlw	110	;'n'
   383  1088  3469               	retlw	105	;'i'
   384  1089  3463               	retlw	99	;'c'
   385  108A  3469               	retlw	105	;'i'
   386  108B  346C               	retlw	108	;'l'
   387  108C  3469               	retlw	105	;'i'
   388  108D  347A               	retlw	122	;'z'
   389  108E  3461               	retlw	97	;'a'
   390  108F  346E               	retlw	110	;'n'
   391  1090  3464               	retlw	100	;'d'
   392  1091  346F               	retlw	111	;'o'
   393  1092  342E               	retlw	46	;'.'
   394  1093  342E               	retlw	46	;'.'
   395  1094  342E               	retlw	46	;'.'
   396  1095  3400               	retlw	0
   397                           psect	strings
   398                           	
   399  1096                     STR_3:	
   400  1096  3450               	retlw	80	;'P'
   401  1097  343D               	retlw	61	;'='
   402  1098  3425               	retlw	37	;'%'
   403  1099  342E               	retlw	46	;'.'
   404  109A  3432               	retlw	50	;'2'
   405  109B  3466               	retlw	102	;'f'
   406  109C  3400               	retlw	0
   407                           psect	strings
   408                           	
   409  109D                     STR_2:	
   410  109D  3456               	retlw	86	;'V'
   411  109E  343D               	retlw	61	;'='
   412  109F  3425               	retlw	37	;'%'
   413  10A0  342E               	retlw	46	;'.'
   414  10A1  3433               	retlw	51	;'3'
   415  10A2  3466               	retlw	102	;'f'
   416  10A3  3400               	retlw	0
   417                           psect	strings
   418  109D                     STR_4	equ	STR_2+0
   419  1096                     STR_5	equ	STR_3+0
   420                           	file	"PWM.as"
   421                           	line	#
   422                           psect cinit,class=CODE,delta=2
   423                           global start_initialization
   424  10B3                     start_initialization:
   425                           
   426                           psect	bssBANK0,class=BANK0,space=1
   427                           global __pbssBANK0
   428  006C                     __pbssBANK0:
   429  006C                     _read:
   430  006C                            ds      2
   431                           
   432  006E                     _VPA:
   433  006E                            ds      1
   434                           
   435  006F                     _VPB:
   436  006F                            ds      1
   437                           
   438                           psect	bssBANK1,class=BANK1,space=1
   439                           global __pbssBANK1
   440  00BC                     __pbssBANK1:
   441  00BC                     _adc:
   442  00BC                            ds      3
   443                           
   444  00BF                     _porcentaje:
   445  00BF                            ds      3
   446                           
   447  00C2                     _buffer:
   448  00C2                            ds      20
   449                           
   450                           psect clrtext,class=CODE,delta=2
   451                           global clear_ram
   452                           ;	Called with FSR containing the base address, and
   453                           ;	W with the last address+1
   454  0800                     clear_ram:
   455  0800  0064               	clrwdt			;clear the watchdog before getting into this loop
   456  0801                     clrloop:
   457  0801  0180               	clrf	indf		;clear RAM location pointed to by FSR
   458  0802  0A84               	incf	fsr,f		;increment pointer
   459  0803  0604               	xorwf	fsr,w		;XOR with final address
   460  0804  1903               	btfsc	status,2	;have we reached the end yet?
   461  0805  3400               	retlw	0		;all done for this memory range, return
   462  0806  0604               	xorwf	fsr,w		;XOR again to restore value
   463  0807  2801               	goto	clrloop		;do the next byte
   464                           
   465                           ; Clear objects allocated to BANK0
   466                           psect cinit,class=CODE,delta=2
   467  10B3  01EC               	clrf	((__pbssBANK0)+0)&07Fh
   468  10B4  01ED               	clrf	((__pbssBANK0)+1)&07Fh
   469  10B5  01EE               	clrf	((__pbssBANK0)+2)&07Fh
   470  10B6  01EF               	clrf	((__pbssBANK0)+3)&07Fh
   471                           ; Clear objects allocated to BANK1
   472                           psect cinit,class=CODE,delta=2
   473  10B7  1383               	bcf	status, 7	;select IRP bank0
   474  10B8  30BC               	movlw	low(__pbssBANK1)
   475  10B9  0084               	movwf	fsr
   476  10BA  30D6               	movlw	low((__pbssBANK1)+01Ah)
   477  10BB  120A  158A  2000   	fcall	clear_ram
              160A  118A         
   478                           psect cinit,class=CODE,delta=2
   479                           global end_of_initialization
   480                           
   481                           ;End of C runtime variable initialization code
   482                           
   483  10C0                     end_of_initialization:
   484  10C0  0183               clrf status
   485  10C1  120A  158A  2AB4   ljmp _main	;jump to C main() function
   486                           psect	cstackBANK1,class=BANK1,space=1
   487                           global __pcstackBANK1
   488  00A0                     __pcstackBANK1:
   489                           	global	_sprintf$4724
   490  00A0                     _sprintf$4724:	; 4 bytes @ 0x0
   491  00A0                     	ds	4
   492                           	global	sprintf@ap
   493  00A4                     sprintf@ap:	; 1 bytes @ 0x4
   494  00A4                     	ds	1
   495                           	global	sprintf@flag
   496  00A5                     sprintf@flag:	; 2 bytes @ 0x5
   497  00A5                     	ds	2
   498                           	global	sprintf@integ
   499  00A7                     sprintf@integ:	; 3 bytes @ 0x7
   500  00A7                     	ds	3
   501                           	global	sprintf@_val
   502  00AA                     sprintf@_val:	; 4 bytes @ 0xA
   503  00AA                     	ds	4
   504                           	global	sprintf@exp
   505  00AE                     sprintf@exp:	; 2 bytes @ 0xE
   506  00AE                     	ds	2
   507                           	global	sprintf@sp
   508  00B0                     sprintf@sp:	; 1 bytes @ 0x10
   509  00B0                     	ds	1
   510                           	global	sprintf@prec
   511  00B1                     sprintf@prec:	; 2 bytes @ 0x11
   512  00B1                     	ds	2
   513                           	global	sprintf@fval
   514  00B3                     sprintf@fval:	; 3 bytes @ 0x13
   515  00B3                     	ds	3
   516                           	global	sprintf@c
   517  00B6                     sprintf@c:	; 1 bytes @ 0x16
   518  00B6                     	ds	1
   519                           	global	??_main
   520  00B7                     ??_main:	; 0 bytes @ 0x17
   521  00B7                     	ds	5
   522                           psect	cstackCOMMON,class=COMMON,space=1
   523                           global __pcstackCOMMON
   524  0070                     __pcstackCOMMON:
   525                           	global	?_lcd_init
   526  0070                     ?_lcd_init:	; 0 bytes @ 0x0
   527                           	global	?_lcd_clear
   528  0070                     ?_lcd_clear:	; 0 bytes @ 0x0
   529                           	global	?_pause
   530  0070                     ?_pause:	; 0 bytes @ 0x0
   531                           	global	?_lcd_goto
   532  0070                     ?_lcd_goto:	; 0 bytes @ 0x0
   533                           	global	?_lcd_putch
   534  0070                     ?_lcd_putch:	; 0 bytes @ 0x0
   535                           	global	?_isdigit
   536  0070                     ?_isdigit:	; 1 bit 
   537                           	global	??_isdigit
   538  0070                     ??_isdigit:	; 0 bytes @ 0x0
   539                           	global	?_main
   540  0070                     ?_main:	; 0 bytes @ 0x0
   541                           	global	?_lcd_write
   542  0070                     ?_lcd_write:	; 0 bytes @ 0x0
   543                           	global	?_msecbase
   544  0070                     ?_msecbase:	; 0 bytes @ 0x0
   545                           	global	??_msecbase
   546  0070                     ??_msecbase:	; 0 bytes @ 0x0
   547                           	global	?___ftge
   548  0070                     ?___ftge:	; 1 bit 
   549                           	global	?___wmul
   550  0070                     ?___wmul:	; 2 bytes @ 0x0
   551                           	global	?___awmod
   552  0070                     ?___awmod:	; 2 bytes @ 0x0
   553                           	global	?___ftpack
   554  0070                     ?___ftpack:	; 3 bytes @ 0x0
   555                           	global	?___ftneg
   556  0070                     ?___ftneg:	; 3 bytes @ 0x0
   557                           	global	?__tdiv_to_l_
   558  0070                     ?__tdiv_to_l_:	; 4 bytes @ 0x0
   559                           	global	?__div_to_l_
   560  0070                     ?__div_to_l_:	; 4 bytes @ 0x0
   561                           	global	?___lldiv
   562  0070                     ?___lldiv:	; 4 bytes @ 0x0
   563                           	global	_isdigit$5232
   564  0070                     _isdigit$5232:	; 1 bytes @ 0x0
   565                           	global	pause@usvalue
   566  0070                     pause@usvalue:	; 2 bytes @ 0x0
   567                           	global	___wmul@multiplier
   568  0070                     ___wmul@multiplier:	; 2 bytes @ 0x0
   569                           	global	___awmod@divisor
   570  0070                     ___awmod@divisor:	; 2 bytes @ 0x0
   571                           	global	___ftneg@f1
   572  0070                     ___ftneg@f1:	; 3 bytes @ 0x0
   573                           	global	___ftge@ff1
   574  0070                     ___ftge@ff1:	; 3 bytes @ 0x0
   575                           	global	__tdiv_to_l_@f1
   576  0070                     __tdiv_to_l_@f1:	; 3 bytes @ 0x0
   577                           	global	__div_to_l_@f1
   578  0070                     __div_to_l_@f1:	; 3 bytes @ 0x0
   579                           	global	___ftpack@arg
   580  0070                     ___ftpack@arg:	; 3 bytes @ 0x0
   581                           	global	___lldiv@divisor
   582  0070                     ___lldiv@divisor:	; 4 bytes @ 0x0
   583  0070                     	ds	1
   584                           	global	isdigit@c
   585  0071                     isdigit@c:	; 1 bytes @ 0x1
   586  0071                     	ds	1
   587                           	global	??_pause
   588  0072                     ??_pause:	; 0 bytes @ 0x2
   589                           	global	pause@x
   590  0072                     pause@x:	; 2 bytes @ 0x2
   591                           	global	___wmul@multiplicand
   592  0072                     ___wmul@multiplicand:	; 2 bytes @ 0x2
   593                           	global	___awmod@dividend
   594  0072                     ___awmod@dividend:	; 2 bytes @ 0x2
   595  0072                     	ds	1
   596                           	global	??___ftneg
   597  0073                     ??___ftneg:	; 0 bytes @ 0x3
   598                           	global	___ftpack@exp
   599  0073                     ___ftpack@exp:	; 1 bytes @ 0x3
   600                           	global	___ftge@ff2
   601  0073                     ___ftge@ff2:	; 3 bytes @ 0x3
   602                           	global	__tdiv_to_l_@f2
   603  0073                     __tdiv_to_l_@f2:	; 3 bytes @ 0x3
   604                           	global	__div_to_l_@f2
   605  0073                     __div_to_l_@f2:	; 3 bytes @ 0x3
   606  0073                     	ds	1
   607                           	global	??_lcd_write
   608  0074                     ??_lcd_write:	; 0 bytes @ 0x4
   609                           	global	??___wmul
   610  0074                     ??___wmul:	; 0 bytes @ 0x4
   611                           	global	??___awmod
   612  0074                     ??___awmod:	; 0 bytes @ 0x4
   613                           	global	___ftpack@sign
   614  0074                     ___ftpack@sign:	; 1 bytes @ 0x4
   615                           	global	___wmul@product
   616  0074                     ___wmul@product:	; 2 bytes @ 0x4
   617                           	global	___lldiv@dividend
   618  0074                     ___lldiv@dividend:	; 4 bytes @ 0x4
   619  0074                     	ds	1
   620                           	global	??___ftpack
   621  0075                     ??___ftpack:	; 0 bytes @ 0x5
   622                           	global	lcd_write@c
   623  0075                     lcd_write@c:	; 1 bytes @ 0x5
   624                           	global	___awmod@counter
   625  0075                     ___awmod@counter:	; 1 bytes @ 0x5
   626  0075                     	ds	1
   627                           	global	??_lcd_init
   628  0076                     ??_lcd_init:	; 0 bytes @ 0x6
   629                           	global	??_lcd_clear
   630  0076                     ??_lcd_clear:	; 0 bytes @ 0x6
   631                           	global	?_lcd_puts
   632  0076                     ?_lcd_puts:	; 0 bytes @ 0x6
   633                           	global	??_lcd_goto
   634  0076                     ??_lcd_goto:	; 0 bytes @ 0x6
   635                           	global	??_lcd_putch
   636  0076                     ??_lcd_putch:	; 0 bytes @ 0x6
   637                           	global	??__tdiv_to_l_
   638  0076                     ??__tdiv_to_l_:	; 0 bytes @ 0x6
   639                           	global	??__div_to_l_
   640  0076                     ??__div_to_l_:	; 0 bytes @ 0x6
   641                           	global	??___ftge
   642  0076                     ??___ftge:	; 0 bytes @ 0x6
   643                           	global	lcd_putch@c
   644  0076                     lcd_putch@c:	; 1 bytes @ 0x6
   645                           	global	lcd_goto@pos
   646  0076                     lcd_goto@pos:	; 1 bytes @ 0x6
   647                           	global	___awmod@sign
   648  0076                     ___awmod@sign:	; 1 bytes @ 0x6
   649                           	global	lcd_puts@s
   650  0076                     lcd_puts@s:	; 2 bytes @ 0x6
   651  0076                     	ds	1
   652                           	global	?___awdiv
   653  0077                     ?___awdiv:	; 2 bytes @ 0x7
   654                           	global	lcd_init@init_value
   655  0077                     lcd_init@init_value:	; 1 bytes @ 0x7
   656                           	global	___awdiv@divisor
   657  0077                     ___awdiv@divisor:	; 2 bytes @ 0x7
   658  0077                     	ds	1
   659                           	global	??_lcd_puts
   660  0078                     ??_lcd_puts:	; 0 bytes @ 0x8
   661                           	global	??___lldiv
   662  0078                     ??___lldiv:	; 0 bytes @ 0x8
   663                           	global	?___awtoft
   664  0078                     ?___awtoft:	; 3 bytes @ 0x8
   665                           	global	?___lltoft
   666  0078                     ?___lltoft:	; 3 bytes @ 0x8
   667                           	global	___awtoft@c
   668  0078                     ___awtoft@c:	; 2 bytes @ 0x8
   669                           	global	___lltoft@c
   670  0078                     ___lltoft@c:	; 4 bytes @ 0x8
   671  0078                     	ds	1
   672                           	global	___awdiv@dividend
   673  0079                     ___awdiv@dividend:	; 2 bytes @ 0x9
   674                           	global	___lldiv@quotient
   675  0079                     ___lldiv@quotient:	; 4 bytes @ 0x9
   676  0079                     	ds	2
   677                           	global	??___awtoft
   678  007B                     ??___awtoft:	; 0 bytes @ 0xB
   679                           	global	??___awdiv
   680  007B                     ??___awdiv:	; 0 bytes @ 0xB
   681  007B                     	ds	1
   682                           	global	??___bmul
   683  007C                     ??___bmul:	; 0 bytes @ 0xC
   684                           	global	??___lltoft
   685  007C                     ??___lltoft:	; 0 bytes @ 0xC
   686  007C                     	ds	1
   687                           	global	___awtoft@sign
   688  007D                     ___awtoft@sign:	; 1 bytes @ 0xD
   689                           	global	___lldiv@counter
   690  007D                     ___lldiv@counter:	; 1 bytes @ 0xD
   691                           	global	___lltoft@exp
   692  007D                     ___lltoft@exp:	; 1 bytes @ 0xD
   693  007D                     	ds	1
   694                           	global	??___ftsub
   695  007E                     ??___ftsub:	; 0 bytes @ 0xE
   696                           psect	cstackBANK0,class=BANK0,space=1
   697                           global __pcstackBANK0
   698  0020                     __pcstackBANK0:
   699                           	global	?___llmod
   700  0020                     ?___llmod:	; 4 bytes @ 0x0
   701                           	global	___awdiv@counter
   702  0020                     ___awdiv@counter:	; 1 bytes @ 0x0
   703                           	global	___llmod@divisor
   704  0020                     ___llmod@divisor:	; 4 bytes @ 0x0
   705                           	global	__tdiv_to_l_@quot
   706  0020                     __tdiv_to_l_@quot:	; 4 bytes @ 0x0
   707                           	global	__div_to_l_@quot
   708  0020                     __div_to_l_@quot:	; 4 bytes @ 0x0
   709  0020                     	ds	1
   710                           	global	___awdiv@sign
   711  0021                     ___awdiv@sign:	; 1 bytes @ 0x1
   712  0021                     	ds	1
   713                           	global	___awdiv@quotient
   714  0022                     ___awdiv@quotient:	; 2 bytes @ 0x2
   715  0022                     	ds	2
   716                           	global	?___bmul
   717  0024                     ?___bmul:	; 1 bytes @ 0x4
   718                           	global	___bmul@multiplicand
   719  0024                     ___bmul@multiplicand:	; 1 bytes @ 0x4
   720                           	global	__tdiv_to_l_@cntr
   721  0024                     __tdiv_to_l_@cntr:	; 1 bytes @ 0x4
   722                           	global	__div_to_l_@cntr
   723  0024                     __div_to_l_@cntr:	; 1 bytes @ 0x4
   724                           	global	___llmod@dividend
   725  0024                     ___llmod@dividend:	; 4 bytes @ 0x4
   726  0024                     	ds	1
   727                           	global	___bmul@product
   728  0025                     ___bmul@product:	; 1 bytes @ 0x5
   729                           	global	__tdiv_to_l_@exp1
   730  0025                     __tdiv_to_l_@exp1:	; 1 bytes @ 0x5
   731                           	global	__div_to_l_@exp1
   732  0025                     __div_to_l_@exp1:	; 1 bytes @ 0x5
   733  0025                     	ds	1
   734                           	global	___bmul@multiplier
   735  0026                     ___bmul@multiplier:	; 1 bytes @ 0x6
   736  0026                     	ds	1
   737                           	global	?___fttol
   738  0027                     ?___fttol:	; 4 bytes @ 0x7
   739                           	global	___fttol@f1
   740  0027                     ___fttol@f1:	; 3 bytes @ 0x7
   741  0027                     	ds	1
   742                           	global	??___llmod
   743  0028                     ??___llmod:	; 0 bytes @ 0x8
   744  0028                     	ds	1
   745                           	global	___llmod@counter
   746  0029                     ___llmod@counter:	; 1 bytes @ 0x9
   747  0029                     	ds	2
   748                           	global	??___fttol
   749  002B                     ??___fttol:	; 0 bytes @ 0xB
   750  002B                     	ds	4
   751                           	global	___fttol@sign1
   752  002F                     ___fttol@sign1:	; 1 bytes @ 0xF
   753  002F                     	ds	1
   754                           	global	___fttol@lval
   755  0030                     ___fttol@lval:	; 4 bytes @ 0x10
   756  0030                     	ds	4
   757                           	global	___fttol@exp1
   758  0034                     ___fttol@exp1:	; 1 bytes @ 0x14
   759  0034                     	ds	1
   760                           	global	?___ftmul
   761  0035                     ?___ftmul:	; 3 bytes @ 0x15
   762                           	global	___ftmul@f1
   763  0035                     ___ftmul@f1:	; 3 bytes @ 0x15
   764  0035                     	ds	3
   765                           	global	___ftmul@f2
   766  0038                     ___ftmul@f2:	; 3 bytes @ 0x18
   767  0038                     	ds	3
   768                           	global	??___ftmul
   769  003B                     ??___ftmul:	; 0 bytes @ 0x1B
   770  003B                     	ds	4
   771                           	global	___ftmul@exp
   772  003F                     ___ftmul@exp:	; 1 bytes @ 0x1F
   773  003F                     	ds	1
   774                           	global	___ftmul@f3_as_product
   775  0040                     ___ftmul@f3_as_product:	; 3 bytes @ 0x20
   776  0040                     	ds	3
   777                           	global	___ftmul@cntr
   778  0043                     ___ftmul@cntr:	; 1 bytes @ 0x23
   779  0043                     	ds	1
   780                           	global	___ftmul@sign
   781  0044                     ___ftmul@sign:	; 1 bytes @ 0x24
   782  0044                     	ds	1
   783                           	global	?_scale
   784  0045                     ?_scale:	; 3 bytes @ 0x25
   785                           	global	?___ftadd
   786  0045                     ?___ftadd:	; 3 bytes @ 0x25
   787                           	global	___ftadd@f1
   788  0045                     ___ftadd@f1:	; 3 bytes @ 0x25
   789  0045                     	ds	3
   790                           	global	??_scale
   791  0048                     ??_scale:	; 0 bytes @ 0x28
   792                           	global	___ftadd@f2
   793  0048                     ___ftadd@f2:	; 3 bytes @ 0x28
   794  0048                     	ds	2
   795                           	global	_scale$5663
   796  004A                     _scale$5663:	; 3 bytes @ 0x2A
   797  004A                     	ds	1
   798                           	global	??___ftadd
   799  004B                     ??___ftadd:	; 0 bytes @ 0x2B
   800  004B                     	ds	2
   801                           	global	scale@scl
   802  004D                     scale@scl:	; 1 bytes @ 0x2D
   803  004D                     	ds	2
   804                           	global	___ftadd@sign
   805  004F                     ___ftadd@sign:	; 1 bytes @ 0x2F
   806  004F                     	ds	1
   807                           	global	___ftadd@exp2
   808  0050                     ___ftadd@exp2:	; 1 bytes @ 0x30
   809  0050                     	ds	1
   810                           	global	___ftadd@exp1
   811  0051                     ___ftadd@exp1:	; 1 bytes @ 0x31
   812  0051                     	ds	1
   813                           	global	?_fround
   814  0052                     ?_fround:	; 3 bytes @ 0x32
   815                           	global	?___ftsub
   816  0052                     ?___ftsub:	; 3 bytes @ 0x32
   817                           	global	___ftsub@f2
   818  0052                     ___ftsub@f2:	; 3 bytes @ 0x32
   819  0052                     	ds	3
   820                           	global	??_fround
   821  0055                     ??_fround:	; 0 bytes @ 0x35
   822                           	global	___ftsub@f1
   823  0055                     ___ftsub@f1:	; 3 bytes @ 0x35
   824  0055                     	ds	6
   825                           	global	_fround$5662
   826  005B                     _fround$5662:	; 3 bytes @ 0x3B
   827  005B                     	ds	3
   828                           	global	_fround$5661
   829  005E                     _fround$5661:	; 3 bytes @ 0x3E
   830  005E                     	ds	3
   831                           	global	fround@prec
   832  0061                     fround@prec:	; 1 bytes @ 0x41
   833  0061                     	ds	1
   834                           	global	?_sprintf
   835  0062                     ?_sprintf:	; 2 bytes @ 0x42
   836                           	global	sprintf@f
   837  0062                     sprintf@f:	; 1 bytes @ 0x42
   838  0062                     	ds	4
   839                           	global	??_sprintf
   840  0066                     ??_sprintf:	; 0 bytes @ 0x46
   841  0066                     	ds	6
   842 ;;Data sizes: Strings 30, constant 118, data 0, bss 30, persistent 0 stack 0
   843 ;;Auto spaces:   Size  Autos    Used
   844 ;; COMMON          14     14      14
   845 ;; BANK0           80     76      80
   846 ;; BANK1           80     28      54
   847 ;; BANK3           96      0       0
   848 ;; BANK2           96      0       0
   849                           
   850 ;;
   851 ;; Pointer list with targets:
   852                           
   853 ;; ?___ftpack	float  size(1) Largest target is 0
   854 ;;
   855 ;; ?___lldiv	unsigned long  size(1) Largest target is 0
   856 ;;
   857 ;; ?___llmod	unsigned long  size(1) Largest target is 0
   858 ;;
   859 ;; ?___ftsub	float  size(1) Largest target is 0
   860 ;;
   861 ;; ?___lltoft	float  size(1) Largest target is 0
   862 ;;
   863 ;; ?__tdiv_to_l_	unsigned long  size(1) Largest target is 0
   864 ;;
   865 ;; ?__div_to_l_	unsigned long  size(1) Largest target is 0
   866 ;;
   867 ;; ?___fttol	long  size(1) Largest target is 0
   868 ;;
   869 ;; ?___ftadd	float  size(1) Largest target is 0
   870 ;;
   871 ;; ?___ftneg	float  size(1) Largest target is 0
   872 ;;
   873 ;; ?_scale	float  size(1) Largest target is 0
   874 ;;
   875 ;; ?___awmod	int  size(1) Largest target is 0
   876 ;;
   877 ;; ?___awdiv	int  size(1) Largest target is 0
   878 ;;
   879 ;; ?_fround	int  size(1) Largest target is 0
   880 ;;
   881 ;; ?___wmul	unsigned int  size(1) Largest target is 0
   882 ;;
   883 ;; ?___ftmul	float  size(1) Largest target is 0
   884 ;;
   885 ;; ?___awtoft	float  size(1) Largest target is 0
   886 ;;
   887 ;; sprintf@f	PTR const unsigned char  size(1) Largest target is 7
   888 ;;		 -> STR_5(CODE[7]), STR_4(CODE[7]), STR_3(CODE[7]), STR_2(CODE[7]), 
   889 ;;
   890 ;; sprintf@sp	PTR unsigned char  size(1) Largest target is 20
   891 ;;		 -> buffer(BANK1[20]), 
   892 ;;
   893 ;; ?_sprintf	int  size(1) Largest target is 0
   894 ;;
   895 ;; sprintf@ap	PTR void [1] size(1) Largest target is 2
   896 ;;		 -> ?_sprintf(BANK0[2]), 
   897 ;;
   898 ;; S4713$_cp	PTR const unsigned char  size(1) Largest target is 0
   899 ;;
   900 ;; _val._str._cp	PTR const unsigned char  size(1) Largest target is 0
   901 ;;
   902 ;; lcd_puts@s	PTR const unsigned char  size(2) Largest target is 20
   903 ;;		 -> buffer(BANK1[20]), STR_1(CODE[16]), 
   904 ;;
   905                           
   906                           
   907 ;;
   908 ;; Critical Paths under _main in COMMON
   909 ;;
   910 ;;   _main->___awtoft
   911 ;;   _lcd_init->_lcd_write
   912 ;;   _lcd_putch->_lcd_write
   913 ;;   _sprintf->__div_to_l_
   914 ;;   _sprintf->___lltoft
   915 ;;   _sprintf->___lldiv
   916 ;;   _lcd_goto->_lcd_write
   917 ;;   _lcd_puts->_lcd_write
   918 ;;   _lcd_clear->_lcd_write
   919 ;;   ___ftsub->___lltoft
   920 ;;   _lcd_write->_pause
   921 ;;   ___lltoft->___ftpack
   922 ;;   ___awtoft->___ftpack
   923 ;;   ___ftmul->___awtoft
   924 ;;   ___llmod->___lldiv
   925 ;;   ___awdiv->___awmod
   926 ;;   ___fttol->___bmul
   927 ;;   ___bmul->___awdiv
   928 ;;
   929 ;; Critical Paths under _main in BANK0
   930 ;;
   931 ;;   _main->_sprintf
   932 ;;   _sprintf->_fround
   933 ;;   ___ftsub->___ftadd
   934 ;;   _scale->___ftmul
   935 ;;   _fround->___ftadd
   936 ;;   ___ftmul->___fttol
   937 ;;   ___ftadd->___ftmul
   938 ;;   ___fttol->___bmul
   939 ;;   ___bmul->___awdiv
   940 ;;
   941 ;; Critical Paths under _main in BANK1
   942 ;;
   943 ;;   _main->_sprintf
   944 ;;
   945 ;; Critical Paths under _main in BANK3
   946 ;;
   947 ;;   None.
   948 ;;
   949 ;; Critical Paths under _main in BANK2
   950 ;;
   951 ;;   None.
   952                           
   953 ;;
   954 ;;Main: autosize = 0, tempsize = 5, incstack = 0, save=0
   955 ;;
   956                           
   957 ;;
   958 ;;Call Graph Tables:
   959 ;;
   960 ;; ---------------------------------------------------------------------------------
   961 ;; (Depth) Function   	        Calls       Base Space   Used Autos Params    Refs
   962 ;; ---------------------------------------------------------------------------------
   963 ;; (0) _main                                                 5     5      0   11565
   964 ;;                                             23 BANK1      5     5      0
   965 ;;                           _lcd_init
   966 ;;                          _lcd_clear
   967 ;;                           _lcd_puts
   968 ;;                              _pause
   969 ;;                           ___awtoft
   970 ;;                            ___ftmul
   971 ;;                           _lcd_goto
   972 ;;                            _sprintf
   973 ;;                          _lcd_putch
   974 ;; ---------------------------------------------------------------------------------
   975 ;; (1) _lcd_init                                             2     2      0     295
   976 ;;                                              6 COMMON     2     2      0
   977 ;;                              _pause
   978 ;;                          _lcd_write
   979 ;;                          _lcd_clear
   980 ;; ---------------------------------------------------------------------------------
   981 ;; (1) _lcd_putch                                            1     1      0     112
   982 ;;                                              6 COMMON     1     1      0
   983 ;;                          _lcd_write
   984 ;; ---------------------------------------------------------------------------------
   985 ;; (1) _sprintf                                             39    35      4    9894
   986 ;;                                             66 BANK0     10     6      4
   987 ;;                                              0 BANK1     23    23      0
   988 ;;                             ___wmul
   989 ;;                            _isdigit
   990 ;;                             ___ftge
   991 ;;                            ___ftneg
   992 ;;                            ___awdiv
   993 ;;                              _scale
   994 ;;                            ___ftmul
   995 ;;                             _fround
   996 ;;                            ___ftadd
   997 ;;                            ___fttol
   998 ;;                         __div_to_l_
   999 ;;                        __tdiv_to_l_
  1000 ;;                           ___lltoft
  1001 ;;                            ___ftsub
  1002 ;;                            ___lldiv
  1003 ;;                            ___llmod
  1004 ;; ---------------------------------------------------------------------------------
  1005 ;; (1) _lcd_goto                                             1     1      0     112
  1006 ;;                                              6 COMMON     1     1      0
  1007 ;;                          _lcd_write
  1008 ;; ---------------------------------------------------------------------------------
  1009 ;; (1) _lcd_puts                                             2     0      2     135
  1010 ;;                                              6 COMMON     2     0      2
  1011 ;;                          _lcd_write
  1012 ;; ---------------------------------------------------------------------------------
  1013 ;; (1) _lcd_clear                                            0     0      0     136
  1014 ;;                          _lcd_write
  1015 ;;                              _pause
  1016 ;; ---------------------------------------------------------------------------------
  1017 ;; (2) ___ftsub                                              6     0      6    1094
  1018 ;;                                             50 BANK0      6     0      6
  1019 ;;                            ___ftadd
  1020 ;;                           ___lltoft (ARG)
  1021 ;; ---------------------------------------------------------------------------------
  1022 ;; (2) _scale                                               12     9      3    1688
  1023 ;;                                             37 BANK0      9     6      3
  1024 ;;                            ___awmod
  1025 ;;                             ___bmul
  1026 ;;                            ___awdiv
  1027 ;;                            ___ftmul
  1028 ;;                            ___fttol (ARG)
  1029 ;; ---------------------------------------------------------------------------------
  1030 ;; (2) _fround                                              19    16      3    1490
  1031 ;;                                             50 BANK0     16    13      3
  1032 ;;                            ___awmod
  1033 ;;                             ___bmul
  1034 ;;                            ___awdiv
  1035 ;;                            ___ftmul
  1036 ;;                            ___ftadd (ARG)
  1037 ;; ---------------------------------------------------------------------------------
  1038 ;; (2) _lcd_write                                            2     2      0      90
  1039 ;;                                              4 COMMON     2     2      0
  1040 ;;                              _pause
  1041 ;; ---------------------------------------------------------------------------------
  1042 ;; (2) ___lltoft                                             6     2      4     278
  1043 ;;                                              8 COMMON     6     2      4
  1044 ;;                           ___ftpack
  1045 ;; ---------------------------------------------------------------------------------
  1046 ;; (1) ___awtoft                                             6     3      3     300
  1047 ;;                                              8 COMMON     6     3      3
  1048 ;;                           ___ftpack
  1049 ;; ---------------------------------------------------------------------------------
  1050 ;; (3) ___ftmul                                             16    10      6     535
  1051 ;;                                             21 BANK0     16    10      6
  1052 ;;                           ___ftpack
  1053 ;;                           ___awtoft (ARG)
  1054 ;;                            ___fttol (ARG)
  1055 ;;                             ___bmul (ARG)
  1056 ;;                            ___awdiv (ARG)
  1057 ;;                            ___awmod (ARG)
  1058 ;; ---------------------------------------------------------------------------------
  1059 ;; (3) ___ftadd                                             13     7      6    1049
  1060 ;;                                             37 BANK0     13     7      6
  1061 ;;                           ___ftpack
  1062 ;;                            ___awmod (ARG)
  1063 ;;                             ___bmul (ARG)
  1064 ;;                            ___awdiv (ARG)
  1065 ;;                            ___ftmul (ARG)
  1066 ;; ---------------------------------------------------------------------------------
  1067 ;; (3) _pause                                                4     2      2      46
  1068 ;;                                              0 COMMON     4     2      2
  1069 ;;                           _msecbase
  1070 ;; ---------------------------------------------------------------------------------
  1071 ;; (3) ___awmod                                              7     3      4     296
  1072 ;;                                              0 COMMON     7     3      4
  1073 ;; ---------------------------------------------------------------------------------
  1074 ;; (2) ___lldiv                                             14     6      8     162
  1075 ;;                                              0 COMMON    14     6      8
  1076 ;; ---------------------------------------------------------------------------------
  1077 ;; (2) ___ftge                                              12     6      6     136
  1078 ;;                                              0 COMMON    12     6      6
  1079 ;; ---------------------------------------------------------------------------------
  1080 ;; (2) ___ftneg                                              3     0      3      45
  1081 ;;                                              0 COMMON     3     0      3
  1082 ;; ---------------------------------------------------------------------------------
  1083 ;; (2) ___llmod                                             10     2      8     159
  1084 ;;                                              0 BANK0     10     2      8
  1085 ;;                            ___lldiv (ARG)
  1086 ;; ---------------------------------------------------------------------------------
  1087 ;; (3) ___awdiv                                              9     5      4     300
  1088 ;;                                              7 COMMON     5     1      4
  1089 ;;                                              0 BANK0      4     4      0
  1090 ;;                            ___awmod (ARG)
  1091 ;; ---------------------------------------------------------------------------------
  1092 ;; (2) ___fttol                                             14    10      4     252
  1093 ;;                                              7 BANK0     14    10      4
  1094 ;;                           ___ftpack (ARG)
  1095 ;;                            ___awmod (ARG)
  1096 ;;                             ___bmul (ARG)
  1097 ;;                            ___awdiv (ARG)
  1098 ;; ---------------------------------------------------------------------------------
  1099 ;; (4) ___ftpack                                             8     3      5     209
  1100 ;;                                              0 COMMON     8     3      5
  1101 ;; ---------------------------------------------------------------------------------
  1102 ;; (2) ___wmul                                               6     2      4      92
  1103 ;;                                              0 COMMON     6     2      4
  1104 ;; ---------------------------------------------------------------------------------
  1105 ;; (3) ___bmul                                               4     3      1      68
  1106 ;;                                             12 COMMON     1     1      0
  1107 ;;                                              4 BANK0      3     2      1
  1108 ;;                            ___awmod (ARG)
  1109 ;;                            ___awdiv (ARG)
  1110 ;; ---------------------------------------------------------------------------------
  1111 ;; (2) __div_to_l_                                          20    14      6     446
  1112 ;;                                              0 COMMON    14     8      6
  1113 ;;                                              0 BANK0      6     6      0
  1114 ;; ---------------------------------------------------------------------------------
  1115 ;; (2) __tdiv_to_l_                                         16    10      6     303
  1116 ;;                                              0 COMMON    10     4      6
  1117 ;;                                              0 BANK0      6     6      0
  1118 ;; ---------------------------------------------------------------------------------
  1119 ;; (2) _isdigit                                              2     2      0      68
  1120 ;;                                              0 COMMON     2     2      0
  1121 ;; ---------------------------------------------------------------------------------
  1122 ;; (4) _msecbase                                             0     0      0       0
  1123 ;; ---------------------------------------------------------------------------------
  1124 ;; Estimated maximum stack depth 4
  1125 ;; ---------------------------------------------------------------------------------
  1126                           
  1127 ;; Call Graph Graphs:
  1128                           
  1129 ;; _main (ROOT)
  1130 ;;   _lcd_init
  1131 ;;     _pause
  1132 ;;       _msecbase
  1133 ;;     _lcd_write
  1134 ;;       _pause
  1135 ;;         _msecbase
  1136 ;;     _lcd_clear
  1137 ;;       _lcd_write
  1138 ;;         _pause
  1139 ;;           _msecbase
  1140 ;;       _pause
  1141 ;;         _msecbase
  1142 ;;   _lcd_clear
  1143 ;;     _lcd_write
  1144 ;;       _pause
  1145 ;;         _msecbase
  1146 ;;     _pause
  1147 ;;       _msecbase
  1148 ;;   _lcd_puts
  1149 ;;     _lcd_write
  1150 ;;       _pause
  1151 ;;         _msecbase
  1152 ;;   _pause
  1153 ;;     _msecbase
  1154 ;;   ___awtoft
  1155 ;;     ___ftpack
  1156 ;;   ___ftmul
  1157 ;;     ___ftpack
  1158 ;;     ___awtoft (ARG)
  1159 ;;       ___ftpack
  1160 ;;     ___fttol (ARG)
  1161 ;;       ___ftpack (ARG)
  1162 ;;       ___awmod (ARG)
  1163 ;;       ___bmul (ARG)
  1164 ;;         ___awmod (ARG)
  1165 ;;         ___awdiv (ARG)
  1166 ;;           ___awmod (ARG)
  1167 ;;       ___awdiv (ARG)
  1168 ;;         ___awmod (ARG)
  1169 ;;     ___bmul (ARG)
  1170 ;;       ___awmod (ARG)
  1171 ;;       ___awdiv (ARG)
  1172 ;;         ___awmod (ARG)
  1173 ;;     ___awdiv (ARG)
  1174 ;;       ___awmod (ARG)
  1175 ;;     ___awmod (ARG)
  1176 ;;   _lcd_goto
  1177 ;;     _lcd_write
  1178 ;;       _pause
  1179 ;;         _msecbase
  1180 ;;   _sprintf
  1181 ;;     ___wmul
  1182 ;;     _isdigit
  1183 ;;     ___ftge
  1184 ;;     ___ftneg
  1185 ;;     ___awdiv
  1186 ;;       ___awmod (ARG)
  1187 ;;     _scale
  1188 ;;       ___awmod
  1189 ;;       ___bmul
  1190 ;;         ___awmod (ARG)
  1191 ;;         ___awdiv (ARG)
  1192 ;;           ___awmod (ARG)
  1193 ;;       ___awdiv
  1194 ;;         ___awmod (ARG)
  1195 ;;       ___ftmul
  1196 ;;         ___ftpack
  1197 ;;         ___awtoft (ARG)
  1198 ;;           ___ftpack
  1199 ;;         ___fttol (ARG)
  1200 ;;           ___ftpack (ARG)
  1201 ;;           ___awmod (ARG)
  1202 ;;           ___bmul (ARG)
  1203 ;;             ___awmod (ARG)
  1204 ;;             ___awdiv (ARG)
  1205 ;;               ___awmod (ARG)
  1206 ;;           ___awdiv (ARG)
  1207 ;;             ___awmod (ARG)
  1208 ;;         ___bmul (ARG)
  1209 ;;           ___awmod (ARG)
  1210 ;;           ___awdiv (ARG)
  1211 ;;             ___awmod (ARG)
  1212 ;;         ___awdiv (ARG)
  1213 ;;           ___awmod (ARG)
  1214 ;;         ___awmod (ARG)
  1215 ;;       ___fttol (ARG)
  1216 ;;         ___ftpack (ARG)
  1217 ;;         ___awmod (ARG)
  1218 ;;         ___bmul (ARG)
  1219 ;;           ___awmod (ARG)
  1220 ;;           ___awdiv (ARG)
  1221 ;;             ___awmod (ARG)
  1222 ;;         ___awdiv (ARG)
  1223 ;;           ___awmod (ARG)
  1224 ;;     ___ftmul
  1225 ;;       ___ftpack
  1226 ;;       ___awtoft (ARG)
  1227 ;;         ___ftpack
  1228 ;;       ___fttol (ARG)
  1229 ;;         ___ftpack (ARG)
  1230 ;;         ___awmod (ARG)
  1231 ;;         ___bmul (ARG)
  1232 ;;           ___awmod (ARG)
  1233 ;;           ___awdiv (ARG)
  1234 ;;             ___awmod (ARG)
  1235 ;;         ___awdiv (ARG)
  1236 ;;           ___awmod (ARG)
  1237 ;;       ___bmul (ARG)
  1238 ;;         ___awmod (ARG)
  1239 ;;         ___awdiv (ARG)
  1240 ;;           ___awmod (ARG)
  1241 ;;       ___awdiv (ARG)
  1242 ;;         ___awmod (ARG)
  1243 ;;       ___awmod (ARG)
  1244 ;;     _fround
  1245 ;;       ___awmod
  1246 ;;       ___bmul
  1247 ;;         ___awmod (ARG)
  1248 ;;         ___awdiv (ARG)
  1249 ;;           ___awmod (ARG)
  1250 ;;       ___awdiv
  1251 ;;         ___awmod (ARG)
  1252 ;;       ___ftmul
  1253 ;;         ___ftpack
  1254 ;;         ___awtoft (ARG)
  1255 ;;           ___ftpack
  1256 ;;         ___fttol (ARG)
  1257 ;;           ___ftpack (ARG)
  1258 ;;           ___awmod (ARG)
  1259 ;;           ___bmul (ARG)
  1260 ;;             ___awmod (ARG)
  1261 ;;             ___awdiv (ARG)
  1262 ;;               ___awmod (ARG)
  1263 ;;           ___awdiv (ARG)
  1264 ;;             ___awmod (ARG)
  1265 ;;         ___bmul (ARG)
  1266 ;;           ___awmod (ARG)
  1267 ;;           ___awdiv (ARG)
  1268 ;;             ___awmod (ARG)
  1269 ;;         ___awdiv (ARG)
  1270 ;;           ___awmod (ARG)
  1271 ;;         ___awmod (ARG)
  1272 ;;       ___ftadd (ARG)
  1273 ;;         ___ftpack
  1274 ;;         ___awmod (ARG)
  1275 ;;         ___bmul (ARG)
  1276 ;;           ___awmod (ARG)
  1277 ;;           ___awdiv (ARG)
  1278 ;;             ___awmod (ARG)
  1279 ;;         ___awdiv (ARG)
  1280 ;;           ___awmod (ARG)
  1281 ;;         ___ftmul (ARG)
  1282 ;;           ___ftpack
  1283 ;;           ___awtoft (ARG)
  1284 ;;             ___ftpack
  1285 ;;           ___fttol (ARG)
  1286 ;;             ___ftpack (ARG)
  1287 ;;             ___awmod (ARG)
  1288 ;;             ___bmul (ARG)
  1289 ;;               ___awmod (ARG)
  1290 ;;               ___awdiv (ARG)
  1291 ;;                 ___awmod (ARG)
  1292 ;;             ___awdiv (ARG)
  1293 ;;               ___awmod (ARG)
  1294 ;;           ___bmul (ARG)
  1295 ;;             ___awmod (ARG)
  1296 ;;             ___awdiv (ARG)
  1297 ;;               ___awmod (ARG)
  1298 ;;           ___awdiv (ARG)
  1299 ;;             ___awmod (ARG)
  1300 ;;           ___awmod (ARG)
  1301 ;;     ___ftadd
  1302 ;;       ___ftpack
  1303 ;;       ___awmod (ARG)
  1304 ;;       ___bmul (ARG)
  1305 ;;         ___awmod (ARG)
  1306 ;;         ___awdiv (ARG)
  1307 ;;           ___awmod (ARG)
  1308 ;;       ___awdiv (ARG)
  1309 ;;         ___awmod (ARG)
  1310 ;;       ___ftmul (ARG)
  1311 ;;         ___ftpack
  1312 ;;         ___awtoft (ARG)
  1313 ;;           ___ftpack
  1314 ;;         ___fttol (ARG)
  1315 ;;           ___ftpack (ARG)
  1316 ;;           ___awmod (ARG)
  1317 ;;           ___bmul (ARG)
  1318 ;;             ___awmod (ARG)
  1319 ;;             ___awdiv (ARG)
  1320 ;;               ___awmod (ARG)
  1321 ;;           ___awdiv (ARG)
  1322 ;;             ___awmod (ARG)
  1323 ;;         ___bmul (ARG)
  1324 ;;           ___awmod (ARG)
  1325 ;;           ___awdiv (ARG)
  1326 ;;             ___awmod (ARG)
  1327 ;;         ___awdiv (ARG)
  1328 ;;           ___awmod (ARG)
  1329 ;;         ___awmod (ARG)
  1330 ;;     ___fttol
  1331 ;;       ___ftpack (ARG)
  1332 ;;       ___awmod (ARG)
  1333 ;;       ___bmul (ARG)
  1334 ;;         ___awmod (ARG)
  1335 ;;         ___awdiv (ARG)
  1336 ;;           ___awmod (ARG)
  1337 ;;       ___awdiv (ARG)
  1338 ;;         ___awmod (ARG)
  1339 ;;     __div_to_l_
  1340 ;;     __tdiv_to_l_
  1341 ;;     ___lltoft
  1342 ;;       ___ftpack
  1343 ;;     ___ftsub
  1344 ;;       ___ftadd
  1345 ;;         ___ftpack
  1346 ;;         ___awmod (ARG)
  1347 ;;         ___bmul (ARG)
  1348 ;;           ___awmod (ARG)
  1349 ;;           ___awdiv (ARG)
  1350 ;;             ___awmod (ARG)
  1351 ;;         ___awdiv (ARG)
  1352 ;;           ___awmod (ARG)
  1353 ;;         ___ftmul (ARG)
  1354 ;;           ___ftpack
  1355 ;;           ___awtoft (ARG)
  1356 ;;             ___ftpack
  1357 ;;           ___fttol (ARG)
  1358 ;;             ___ftpack (ARG)
  1359 ;;             ___awmod (ARG)
  1360 ;;             ___bmul (ARG)
  1361 ;;               ___awmod (ARG)
  1362 ;;               ___awdiv (ARG)
  1363 ;;                 ___awmod (ARG)
  1364 ;;             ___awdiv (ARG)
  1365 ;;               ___awmod (ARG)
  1366 ;;           ___bmul (ARG)
  1367 ;;             ___awmod (ARG)
  1368 ;;             ___awdiv (ARG)
  1369 ;;               ___awmod (ARG)
  1370 ;;           ___awdiv (ARG)
  1371 ;;             ___awmod (ARG)
  1372 ;;           ___awmod (ARG)
  1373 ;;       ___lltoft (ARG)
  1374 ;;         ___ftpack
  1375 ;;     ___lldiv
  1376 ;;     ___llmod
  1377 ;;       ___lldiv (ARG)
  1378 ;;   _lcd_putch
  1379 ;;     _lcd_write
  1380 ;;       _pause
  1381 ;;         _msecbase
  1382 ;;
  1383                           
  1384 ;; Address spaces:
  1385                           
  1386 ;;Name               Size   Autos  Total    Cost      Usage
  1387 ;;BITCOMMON            E      0       0       0        0.0%
  1388 ;;EEDATA             100      0       0       0        0.0%
  1389 ;;NULL                 0      0       0       0        0.0%
  1390 ;;CODE                 0      0       0       0        0.0%
  1391 ;;COMMON               E      E       E       1      100.0%
  1392 ;;BITSFR0              0      0       0       1        0.0%
  1393 ;;SFR0                 0      0       0       1        0.0%
  1394 ;;BITSFR1              0      0       0       2        0.0%
  1395 ;;SFR1                 0      0       0       2        0.0%
  1396 ;;STACK                0      0       5       2        0.0%
  1397 ;;ABS                  0      0      94       3        0.0%
  1398 ;;BITBANK0            50      0       0       4        0.0%
  1399 ;;BITSFR3              0      0       0       4        0.0%
  1400 ;;SFR3                 0      0       0       4        0.0%
  1401 ;;BANK0               50     4C      50       5      100.0%
  1402 ;;BITSFR2              0      0       0       5        0.0%
  1403 ;;SFR2                 0      0       0       5        0.0%
  1404 ;;BITBANK1            50      0       0       6        0.0%
  1405 ;;BANK1               50     1C      36       7       67.5%
  1406 ;;BITBANK3            60      0       0       8        0.0%
  1407 ;;BANK3               60      0       0       9        0.0%
  1408 ;;BITBANK2            60      0       0      10        0.0%
  1409 ;;BANK2               60      0       0      11        0.0%
  1410 ;;DATA                 0      0      99      12        0.0%
  1411                           
  1412                           	global	_main
  1413                           psect	maintext,global,class=CODE,delta=2
  1414                           global __pmaintext
  1415  0AB4                     __pmaintext:
  1416                           
  1417 ;; *************** function _main *****************
  1418 ;; Defined at:
  1419 ;;		line 20 in file "C:\PIC_PROGS\C\PWM\PWM.c"
  1420 ;; Parameters:    Size  Location     Type
  1421 ;;		None
  1422 ;; Auto vars:     Size  Location     Type
  1423 ;;		None
  1424 ;; Return value:  Size  Location     Type
  1425 ;;		None               void
  1426 ;; Registers used:
  1427 ;;		wreg, fsr0l, fsr0h, status,2, status,0, btemp+1, pclath, cstack
  1428 ;; Tracked objects:
  1429 ;;		On entry : 17F/0
  1430 ;;		On exit  : 0/0
  1431 ;;		Unchanged: 0/0
  1432 ;; Data sizes:     COMMON   BANK0   BANK1   BANK3   BANK2
  1433 ;;      Params:         0       0       0       0       0
  1434 ;;      Locals:         0       0       0       0       0
  1435 ;;      Temps:          0       0       5       0       0
  1436 ;;      Totals:         0       0       5       0       0
  1437 ;;Total ram usage:        5 bytes
  1438 ;; Hardware stack levels required when called:    5
  1439 ;; This function calls:
  1440 ;;		_lcd_init
  1441 ;;		_lcd_clear
  1442 ;;		_lcd_puts
  1443 ;;		_pause
  1444 ;;		___awtoft
  1445 ;;		___ftmul
  1446 ;;		_lcd_goto
  1447 ;;		_sprintf
  1448 ;;		_lcd_putch
  1449 ;; This function is called by:
  1450 ;;		Startup code after reset
  1451 ;; This function uses a non-reentrant model
  1452 ;;
  1453                           psect	maintext
  1454                           	file	"C:\PIC_PROGS\C\PWM\PWM.c"
  1455                           	line	20
  1456                           	global	__size_of_main
  1457  028D                     	__size_of_main	equ	__end_of_main-_main
  1458                           	
  1459  0AB4                     _main:	
  1460                           	opt	stack 3
  1461                           ; Regs used in _main: [wreg-fsr0h+status,2+status,0+btemp+1+pclath+cstack]
  1462                           	line	21
  1463                           	
  1464  0AB4                     l9113:	
  1465                           ;PWM.c: 21: OSCCON = 0x70;
  1466  0AB4  3070               	movlw	(070h)
  1467  0AB5  1683               	bsf	status, 5	;RP0=1, select bank1
  1468  0AB6  1303               	bcf	status, 6	;RP1=0, select bank1
  1469  0AB7  008F               	movwf	(143)^080h	;volatile
  1470                           	line	23
  1471                           ;PWM.c: 23: ANSEL = 0xF0;
  1472  0AB8  30F0               	movlw	(0F0h)
  1473  0AB9  1683               	bsf	status, 5	;RP0=1, select bank3
  1474  0ABA  1703               	bsf	status, 6	;RP1=1, select bank3
  1475  0ABB  0088               	movwf	(392)^0180h	;volatile
  1476                           	line	24
  1477                           	
  1478  0ABC                     l9115:	
  1479                           ;PWM.c: 24: ANSELH = 0x00;
  1480  0ABC  0189               	clrf	(393)^0180h	;volatile
  1481                           	line	25
  1482                           	
  1483  0ABD                     l9117:	
  1484                           ;PWM.c: 25: ADCON1 = 0b00000000;
  1485  0ABD  1683               	bsf	status, 5	;RP0=1, select bank1
  1486  0ABE  1303               	bcf	status, 6	;RP1=0, select bank1
  1487  0ABF  019F               	clrf	(159)^080h	;volatile
  1488                           	line	27
  1489                           	
  1490  0AC0                     l9119:	
  1491                           ;PWM.c: 27: TRISA = 0b00000000;
  1492  0AC0  0185               	clrf	(133)^080h	;volatile
  1493                           	line	28
  1494                           	
  1495  0AC1                     l9121:	
  1496                           ;PWM.c: 28: TRISB = 0b00000100;
  1497  0AC1  3004               	movlw	(04h)
  1498  0AC2  0086               	movwf	(134)^080h	;volatile
  1499                           	line	29
  1500                           	
  1501  0AC3                     l9123:	
  1502                           ;PWM.c: 29: TRISE = 0b00000111;
  1503  0AC3  3007               	movlw	(07h)
  1504  0AC4  0089               	movwf	(137)^080h	;volatile
  1505                           	line	30
  1506                           	
  1507  0AC5                     l9125:	
  1508                           ;PWM.c: 30: TRISC = 0x00;
  1509  0AC5  0187               	clrf	(135)^080h	;volatile
  1510                           	line	31
  1511                           	
  1512  0AC6                     l9127:	
  1513                           ;PWM.c: 31: TRISD = 0x00;
  1514  0AC6  0188               	clrf	(136)^080h	;volatile
  1515                           	line	34
  1516                           	
  1517  0AC7                     l9129:	
  1518                           ;PWM.c: 34: lcd_init();
  1519  0AC7  160A  118A  21D4   	fcall	_lcd_init
              120A  158A         
  1520                           	line	35
  1521                           	
  1522  0ACC                     l9131:	
  1523                           ;PWM.c: 35: lcd_clear();
  1524  0ACC  160A  118A  20C4   	fcall	_lcd_clear
              120A  158A         
  1525                           	line	36
  1526                           	
  1527  0AD1                     l9133:	
  1528                           ;PWM.c: 36: lcd_puts("Inicilizando...");
  1529  0AD1  3077               	movlw	low((STR_1-__stringbase))
  1530  0AD2  00F6               	movwf	(?_lcd_puts)
  1531  0AD3  3080               	movlw	80h
  1532  0AD4  00F7               	movwf	(?_lcd_puts+1)
  1533  0AD5  160A  118A  2177   	fcall	_lcd_puts
              120A  158A         
  1534                           	line	37
  1535                           	
  1536  0ADA                     l9135:	
  1537                           ;PWM.c: 37: pause(500);
  1538  0ADA  30F4               	movlw	low(01F4h)
  1539  0ADB  00F0               	movwf	(?_pause)
  1540  0ADC  3001               	movlw	high(01F4h)
  1541  0ADD  00F1               	movwf	((?_pause))+1
  1542  0ADE  120A  118A  2003   	fcall	_pause
              120A  158A         
  1543                           	line	38
  1544                           	
  1545  0AE3                     l9137:	
  1546                           ;PWM.c: 38: lcd_clear();
  1547  0AE3  160A  118A  20C4   	fcall	_lcd_clear
              120A  158A         
  1548                           	line	41
  1549                           	
  1550  0AE8                     l9139:	
  1551                           ;PWM.c: 41: PR2 = 255;
  1552  0AE8  30FF               	movlw	(0FFh)
  1553  0AE9  1683               	bsf	status, 5	;RP0=1, select bank1
  1554  0AEA  1303               	bcf	status, 6	;RP1=0, select bank1
  1555  0AEB  0092               	movwf	(146)^080h	;volatile
  1556                           	line	42
  1557                           	
  1558  0AEC                     l9141:	
  1559                           ;PWM.c: 42: CCPR1L = 0x80;
  1560  0AEC  3080               	movlw	(080h)
  1561  0AED  1283               	bcf	status, 5	;RP0=0, select bank0
  1562  0AEE  1303               	bcf	status, 6	;RP1=0, select bank0
  1563  0AEF  0095               	movwf	(21)	;volatile
  1564                           	line	43
  1565                           	
  1566  0AF0                     l9143:	
  1567                           ;PWM.c: 43: TMR2IE = 1;
  1568  0AF0  1683               	bsf	status, 5	;RP0=1, select bank1
  1569  0AF1  1303               	bcf	status, 6	;RP1=0, select bank1
  1570  0AF2  148C               	bsf	(1121/8)^080h,(1121)&7
  1571                           	line	44
  1572                           	
  1573  0AF3                     l9145:	
  1574                           ;PWM.c: 44: CCP1CON = 0b00001100;
  1575  0AF3  300C               	movlw	(0Ch)
  1576  0AF4  1283               	bcf	status, 5	;RP0=0, select bank0
  1577  0AF5  1303               	bcf	status, 6	;RP1=0, select bank0
  1578  0AF6  0097               	movwf	(23)	;volatile
  1579                           	line	45
  1580                           	
  1581  0AF7                     l9147:	
  1582                           ;PWM.c: 45: T2CON = 0x00000010;
  1583  0AF7  3010               	movlw	(010h)
  1584  0AF8  0092               	movwf	(18)	;volatile
  1585                           	line	46
  1586                           	
  1587  0AF9                     l9149:	
  1588                           ;PWM.c: 46: TMR2ON = 1;
  1589  0AF9  1512               	bsf	(146/8),(146)&7
  1590                           	line	47
  1591                           ;PWM.c: 47: while (!TMR2IF)
  1592  0AFA  2AFB               	goto	l1051
  1593                           	
  1594  0AFB                     l1052:	
  1595                           	line	49
  1596                           ;PWM.c: 48: {
  1597                           	
  1598  0AFB                     l1051:	
  1599                           	line	47
  1600  0AFB  1C8C               	btfss	(97/8),(97)&7
  1601  0AFC  2AFE               	goto	u5031
  1602  0AFD  2AFF               	goto	u5030
  1603  0AFE                     u5031:
  1604  0AFE  2AFB               	goto	l1051
  1605  0AFF                     u5030:
  1606  0AFF  2B01               	goto	l9151
  1607                           	
  1608  0B00                     l1053:	
  1609  0B00  2B01               	goto	l9151
  1610                           	line	52
  1611                           ;PWM.c: 49: }
  1612                           ;PWM.c: 52: while (1)
  1613                           	
  1614  0B01                     l1054:	
  1615                           	line	55
  1616                           	
  1617  0B01                     l9151:	
  1618                           ;PWM.c: 53: {
  1619                           ;PWM.c: 55: ADCON0 = 0b00011001;
  1620  0B01  3019               	movlw	(019h)
  1621  0B02  1283               	bcf	status, 5	;RP0=0, select bank0
  1622  0B03  1303               	bcf	status, 6	;RP1=0, select bank0
  1623  0B04  009F               	movwf	(31)	;volatile
  1624                           	line	56
  1625                           	
  1626  0B05                     l9153:	
  1627                           ;PWM.c: 56: GO_DONE = 1;
  1628  0B05  149F               	bsf	(249/8),(249)&7
  1629                           	line	57
  1630                           	
  1631  0B06                     l9155:	
  1632                           ;PWM.c: 57: pause(1);
  1633  0B06  3001               	movlw	low(01h)
  1634  0B07  00F0               	movwf	(?_pause)
  1635  0B08  3000               	movlw	high(01h)
  1636  0B09  00F1               	movwf	((?_pause))+1
  1637  0B0A  120A  118A  2003   	fcall	_pause
              120A  158A         
  1638                           	line	58
  1639                           ;PWM.c: 58: while(GO_DONE == 1);
  1640  0B0F  2B10               	goto	l1055
  1641                           	
  1642  0B10                     l1056:	
  1643                           	
  1644  0B10                     l1055:	
  1645  0B10  1283               	bcf	status, 5	;RP0=0, select bank0
  1646  0B11  1303               	bcf	status, 6	;RP1=0, select bank0
  1647  0B12  189F               	btfsc	(249/8),(249)&7
  1648  0B13  2B15               	goto	u5041
  1649  0B14  2B16               	goto	u5040
  1650  0B15                     u5041:
  1651  0B15  2B10               	goto	l1055
  1652  0B16                     u5040:
  1653                           	
  1654  0B16                     l1057:	
  1655                           	line	59
  1656                           ;PWM.c: 59: ADON = 0;
  1657  0B16  101F               	bcf	(248/8),(248)&7
  1658                           	line	60
  1659                           	
  1660  0B17                     l9157:	
  1661                           ;PWM.c: 60: read = (ADRESH << 2)|(ADRESL >> 6);
  1662  0B17  1683               	bsf	status, 5	;RP0=1, select bank1
  1663  0B18  1303               	bcf	status, 6	;RP1=0, select bank1
  1664  0B19  081E               	movf	(158)^080h,w	;volatile
  1665  0B1A  00B7               	movwf	(??_main+0)^080h+0
  1666  0B1B  3006               	movlw	06h
  1667  0B1C                     u5055:
  1668  0B1C  1003               	clrc
  1669  0B1D  0CB7               	rrf	(??_main+0)^080h+0,f
  1670  0B1E  3EFF               	addlw	-1
  1671  0B1F  1D03               	skipz
  1672  0B20  2B1C               	goto	u5055
  1673  0B21  0837               	movf	0+(??_main+0)^080h+0,w
  1674  0B22  00B8               	movwf	(??_main+1)^080h+0
  1675  0B23  01B9               	clrf	(??_main+1)^080h+0+1
  1676  0B24  1283               	bcf	status, 5	;RP0=0, select bank0
  1677  0B25  1303               	bcf	status, 6	;RP1=0, select bank0
  1678  0B26  081E               	movf	(30),w	;volatile
  1679  0B27  1683               	bsf	status, 5	;RP0=1, select bank1
  1680  0B28  1303               	bcf	status, 6	;RP1=0, select bank1
  1681  0B29  00BA               	movwf	(??_main+3)^080h+0
  1682  0B2A  01BB               	clrf	(??_main+3)^080h+0+1
  1683  0B2B  3002               	movlw	02h
  1684  0B2C  00FF               	movwf	btemp+1
  1685  0B2D                     u5065:
  1686  0B2D  1003               	clrc
  1687  0B2E  0DBA               	rlf	(??_main+3)^080h+0,f
  1688  0B2F  0DBB               	rlf	(??_main+3)^080h+1,f
  1689  0B30  0BFF               	decfsz	btemp+1,f
  1690  0B31  2B2D               	goto	u5065
  1691  0B32  0838               	movf	0+(??_main+1)^080h+0,w
  1692  0B33  043A               	iorwf	0+(??_main+3)^080h+0,w
  1693  0B34  1283               	bcf	status, 5	;RP0=0, select bank0
  1694  0B35  1303               	bcf	status, 6	;RP1=0, select bank0
  1695  0B36  00EC               	movwf	(_read)
  1696  0B37  1683               	bsf	status, 5	;RP0=1, select bank1
  1697  0B38  1303               	bcf	status, 6	;RP1=0, select bank1
  1698  0B39  0839               	movf	1+(??_main+1)^080h+0,w
  1699  0B3A  043B               	iorwf	1+(??_main+3)^080h+0,w
  1700  0B3B  1283               	bcf	status, 5	;RP0=0, select bank0
  1701  0B3C  1303               	bcf	status, 6	;RP1=0, select bank0
  1702  0B3D  00ED               	movwf	1+(_read)
  1703                           	line	61
  1704                           	
  1705  0B3E                     l9159:	
  1706                           ;PWM.c: 61: adc = (read*0.0048875855327468);
  1707  0B3E  3028               	movlw	0x28
  1708  0B3F  00B5               	movwf	(?___ftmul)
  1709  0B40  30A0               	movlw	0xa0
  1710  0B41  00B6               	movwf	(?___ftmul+1)
  1711  0B42  303B               	movlw	0x3b
  1712  0B43  00B7               	movwf	(?___ftmul+2)
  1713  0B44  086D               	movf	(_read+1),w
  1714  0B45  01F9               	clrf	(?___awtoft+1)
  1715  0B46  07F9               	addwf	(?___awtoft+1)
  1716  0B47  086C               	movf	(_read),w
  1717  0B48  01F8               	clrf	(?___awtoft)
  1718  0B49  07F8               	addwf	(?___awtoft)
  1719                           
  1720  0B4A  160A  118A  2125   	fcall	___awtoft
              120A  158A         
  1721  0B4F  0878               	movf	(0+(?___awtoft)),w
  1722  0B50  1283               	bcf	status, 5	;RP0=0, select bank0
  1723  0B51  1303               	bcf	status, 6	;RP1=0, select bank0
  1724  0B52  00B8               	movwf	0+(?___ftmul)+03h
  1725  0B53  0879               	movf	(1+(?___awtoft)),w
  1726  0B54  00B9               	movwf	1+(?___ftmul)+03h
  1727  0B55  087A               	movf	(2+(?___awtoft)),w
  1728  0B56  00BA               	movwf	2+(?___ftmul)+03h
  1729  0B57  120A  118A  201E   	fcall	___ftmul
              120A  158A         
  1730  0B5C  1283               	bcf	status, 5	;RP0=0, select bank0
  1731  0B5D  1303               	bcf	status, 6	;RP1=0, select bank0
  1732  0B5E  0835               	movf	(0+(?___ftmul)),w
  1733  0B5F  1683               	bsf	status, 5	;RP0=1, select bank1
  1734  0B60  1303               	bcf	status, 6	;RP1=0, select bank1
  1735  0B61  00BC               	movwf	(_adc)^080h
  1736  0B62  1283               	bcf	status, 5	;RP0=0, select bank0
  1737  0B63  1303               	bcf	status, 6	;RP1=0, select bank0
  1738  0B64  0836               	movf	(1+(?___ftmul)),w
  1739  0B65  1683               	bsf	status, 5	;RP0=1, select bank1
  1740  0B66  1303               	bcf	status, 6	;RP1=0, select bank1
  1741  0B67  00BD               	movwf	(_adc+1)^080h
  1742  0B68  1283               	bcf	status, 5	;RP0=0, select bank0
  1743  0B69  1303               	bcf	status, 6	;RP1=0, select bank0
  1744  0B6A  0837               	movf	(2+(?___ftmul)),w
  1745  0B6B  1683               	bsf	status, 5	;RP0=1, select bank1
  1746  0B6C  1303               	bcf	status, 6	;RP1=0, select bank1
  1747  0B6D  00BE               	movwf	(_adc+2)^080h
  1748                           	line	62
  1749                           	
  1750  0B6E                     l9161:	
  1751                           ;PWM.c: 62: CCPR1L = ADRESH;
  1752  0B6E  1283               	bcf	status, 5	;RP0=0, select bank0
  1753  0B6F  1303               	bcf	status, 6	;RP1=0, select bank0
  1754  0B70  081E               	movf	(30),w	;volatile
  1755  0B71  0095               	movwf	(21)	;volatile
  1756                           	line	63
  1757                           	
  1758  0B72                     l9163:	
  1759                           ;PWM.c: 63: CCP1CON=0b00001100|(ADRESL >> 2);
  1760  0B72  1683               	bsf	status, 5	;RP0=1, select bank1
  1761  0B73  1303               	bcf	status, 6	;RP1=0, select bank1
  1762  0B74  081E               	movf	(158)^080h,w	;volatile
  1763  0B75  00B7               	movwf	(??_main+0)^080h+0
  1764  0B76  3002               	movlw	02h
  1765  0B77                     u5075:
  1766  0B77  1003               	clrc
  1767  0B78  0CB7               	rrf	(??_main+0)^080h+0,f
  1768  0B79  3EFF               	addlw	-1
  1769  0B7A  1D03               	skipz
  1770  0B7B  2B77               	goto	u5075
  1771  0B7C  0837               	movf	0+(??_main+0)^080h+0,w
  1772  0B7D  380C               	iorlw	0Ch
  1773  0B7E  1283               	bcf	status, 5	;RP0=0, select bank0
  1774  0B7F  1303               	bcf	status, 6	;RP1=0, select bank0
  1775  0B80  0097               	movwf	(23)	;volatile
  1776                           	line	64
  1777                           	
  1778  0B81                     l9165:	
  1779                           ;PWM.c: 64: lcd_goto(0x80);
  1780  0B81  3080               	movlw	(080h)
  1781  0B82  160A  158A  27DE   	fcall	_lcd_goto
              120A  158A         
  1782                           	line	65
  1783                           	
  1784  0B87                     l9167:	
  1785                           ;PWM.c: 65: sprintf(buffer,"V=%.3f",adc);
  1786  0B87  308E               	movlw	((STR_2-__stringbase))&0ffh
  1787  0B88  1683               	bsf	status, 5	;RP0=1, select bank1
  1788  0B89  1303               	bcf	status, 6	;RP1=0, select bank1
  1789  0B8A  00B7               	movwf	(??_main+0)^080h+0
  1790  0B8B  0837               	movf	(??_main+0)^080h+0,w
  1791  0B8C  1283               	bcf	status, 5	;RP0=0, select bank0
  1792  0B8D  1303               	bcf	status, 6	;RP1=0, select bank0
  1793  0B8E  00E2               	movwf	(?_sprintf)
  1794  0B8F  1683               	bsf	status, 5	;RP0=1, select bank1
  1795  0B90  1303               	bcf	status, 6	;RP1=0, select bank1
  1796  0B91  083C               	movf	(_adc)^080h,w
  1797  0B92  1283               	bcf	status, 5	;RP0=0, select bank0
  1798  0B93  1303               	bcf	status, 6	;RP1=0, select bank0
  1799  0B94  00E3               	movwf	0+(?_sprintf)+01h
  1800  0B95  1683               	bsf	status, 5	;RP0=1, select bank1
  1801  0B96  1303               	bcf	status, 6	;RP1=0, select bank1
  1802  0B97  083D               	movf	(_adc+1)^080h,w
  1803  0B98  1283               	bcf	status, 5	;RP0=0, select bank0
  1804  0B99  1303               	bcf	status, 6	;RP1=0, select bank0
  1805  0B9A  00E4               	movwf	1+(?_sprintf)+01h
  1806  0B9B  1683               	bsf	status, 5	;RP0=1, select bank1
  1807  0B9C  1303               	bcf	status, 6	;RP1=0, select bank1
  1808  0B9D  083E               	movf	(_adc+2)^080h,w
  1809  0B9E  1283               	bcf	status, 5	;RP0=0, select bank0
  1810  0B9F  1303               	bcf	status, 6	;RP1=0, select bank0
  1811  0BA0  00E5               	movwf	2+(?_sprintf)+01h
  1812  0BA1  30C2               	movlw	(_buffer)&0ffh
  1813  0BA2  120A  118A  210C   	fcall	_sprintf
              120A  158A         
  1814                           	line	66
  1815                           	
  1816  0BA7                     l9169:	
  1817                           ;PWM.c: 66: lcd_puts(buffer);
  1818  0BA7  30C2               	movlw	(_buffer&0ffh)
  1819  0BA8  00F6               	movwf	(?_lcd_puts)
  1820  0BA9  3000               	movlw	(0x1/2)
  1821  0BAA  00F7               	movwf	(?_lcd_puts+1)
  1822  0BAB  160A  118A  2177   	fcall	_lcd_puts
              120A  158A         
  1823                           	line	67
  1824                           	
  1825  0BB0                     l9171:	
  1826                           ;PWM.c: 67: lcd_goto(0x88);
  1827  0BB0  3088               	movlw	(088h)
  1828  0BB1  160A  158A  27DE   	fcall	_lcd_goto
              120A  158A         
  1829                           	line	68
  1830                           	
  1831  0BB6                     l9173:	
  1832                           ;PWM.c: 68: porcentaje = read*0.09765625;
  1833  0BB6  3000               	movlw	0x0
  1834  0BB7  1283               	bcf	status, 5	;RP0=0, select bank0
  1835  0BB8  1303               	bcf	status, 6	;RP1=0, select bank0
  1836  0BB9  00B5               	movwf	(?___ftmul)
  1837  0BBA  30C8               	movlw	0xc8
  1838  0BBB  00B6               	movwf	(?___ftmul+1)
  1839  0BBC  303D               	movlw	0x3d
  1840  0BBD  00B7               	movwf	(?___ftmul+2)
  1841  0BBE  086D               	movf	(_read+1),w
  1842  0BBF  01F9               	clrf	(?___awtoft+1)
  1843  0BC0  07F9               	addwf	(?___awtoft+1)
  1844  0BC1  086C               	movf	(_read),w
  1845  0BC2  01F8               	clrf	(?___awtoft)
  1846  0BC3  07F8               	addwf	(?___awtoft)
  1847                           
  1848  0BC4  160A  118A  2125   	fcall	___awtoft
              120A  158A         
  1849  0BC9  0878               	movf	(0+(?___awtoft)),w
  1850  0BCA  1283               	bcf	status, 5	;RP0=0, select bank0
  1851  0BCB  1303               	bcf	status, 6	;RP1=0, select bank0
  1852  0BCC  00B8               	movwf	0+(?___ftmul)+03h
  1853  0BCD  0879               	movf	(1+(?___awtoft)),w
  1854  0BCE  00B9               	movwf	1+(?___ftmul)+03h
  1855  0BCF  087A               	movf	(2+(?___awtoft)),w
  1856  0BD0  00BA               	movwf	2+(?___ftmul)+03h
  1857  0BD1  120A  118A  201E   	fcall	___ftmul
              120A  158A         
  1858  0BD6  1283               	bcf	status, 5	;RP0=0, select bank0
  1859  0BD7  1303               	bcf	status, 6	;RP1=0, select bank0
  1860  0BD8  0835               	movf	(0+(?___ftmul)),w
  1861  0BD9  1683               	bsf	status, 5	;RP0=1, select bank1
  1862  0BDA  1303               	bcf	status, 6	;RP1=0, select bank1
  1863  0BDB  00BF               	movwf	(_porcentaje)^080h
  1864  0BDC  1283               	bcf	status, 5	;RP0=0, select bank0
  1865  0BDD  1303               	bcf	status, 6	;RP1=0, select bank0
  1866  0BDE  0836               	movf	(1+(?___ftmul)),w
  1867  0BDF  1683               	bsf	status, 5	;RP0=1, select bank1
  1868  0BE0  1303               	bcf	status, 6	;RP1=0, select bank1
  1869  0BE1  00C0               	movwf	(_porcentaje+1)^080h
  1870  0BE2  1283               	bcf	status, 5	;RP0=0, select bank0
  1871  0BE3  1303               	bcf	status, 6	;RP1=0, select bank0
  1872  0BE4  0837               	movf	(2+(?___ftmul)),w
  1873  0BE5  1683               	bsf	status, 5	;RP0=1, select bank1
  1874  0BE6  1303               	bcf	status, 6	;RP1=0, select bank1
  1875  0BE7  00C1               	movwf	(_porcentaje+2)^080h
  1876                           	line	69
  1877                           	
  1878  0BE8                     l9175:	
  1879                           ;PWM.c: 69: sprintf(buffer,"P=%.2f",porcentaje);
  1880  0BE8  3087               	movlw	((STR_3-__stringbase))&0ffh
  1881  0BE9  00B7               	movwf	(??_main+0)^080h+0
  1882  0BEA  0837               	movf	(??_main+0)^080h+0,w
  1883  0BEB  1283               	bcf	status, 5	;RP0=0, select bank0
  1884  0BEC  1303               	bcf	status, 6	;RP1=0, select bank0
  1885  0BED  00E2               	movwf	(?_sprintf)
  1886  0BEE  1683               	bsf	status, 5	;RP0=1, select bank1
  1887  0BEF  1303               	bcf	status, 6	;RP1=0, select bank1
  1888  0BF0  083F               	movf	(_porcentaje)^080h,w
  1889  0BF1  1283               	bcf	status, 5	;RP0=0, select bank0
  1890  0BF2  1303               	bcf	status, 6	;RP1=0, select bank0
  1891  0BF3  00E3               	movwf	0+(?_sprintf)+01h
  1892  0BF4  1683               	bsf	status, 5	;RP0=1, select bank1
  1893  0BF5  1303               	bcf	status, 6	;RP1=0, select bank1
  1894  0BF6  0840               	movf	(_porcentaje+1)^080h,w
  1895  0BF7  1283               	bcf	status, 5	;RP0=0, select bank0
  1896  0BF8  1303               	bcf	status, 6	;RP1=0, select bank0
  1897  0BF9  00E4               	movwf	1+(?_sprintf)+01h
  1898  0BFA  1683               	bsf	status, 5	;RP0=1, select bank1
  1899  0BFB  1303               	bcf	status, 6	;RP1=0, select bank1
  1900  0BFC  0841               	movf	(_porcentaje+2)^080h,w
  1901  0BFD  1283               	bcf	status, 5	;RP0=0, select bank0
  1902  0BFE  1303               	bcf	status, 6	;RP1=0, select bank0
  1903  0BFF  00E5               	movwf	2+(?_sprintf)+01h
  1904  0C00  30C2               	movlw	(_buffer)&0ffh
  1905  0C01  120A  118A  210C   	fcall	_sprintf
              120A  158A         
  1906                           	line	70
  1907                           	
  1908  0C06                     l9177:	
  1909                           ;PWM.c: 70: lcd_puts(buffer);
  1910  0C06  30C2               	movlw	(_buffer&0ffh)
  1911  0C07  00F6               	movwf	(?_lcd_puts)
  1912  0C08  3000               	movlw	(0x1/2)
  1913  0C09  00F7               	movwf	(?_lcd_puts+1)
  1914  0C0A  160A  118A  2177   	fcall	_lcd_puts
              120A  158A         
  1915                           	line	71
  1916                           	
  1917  0C0F                     l9179:	
  1918                           ;PWM.c: 71: lcd_goto(0x8F);
  1919  0C0F  308F               	movlw	(08Fh)
  1920  0C10  160A  158A  27DE   	fcall	_lcd_goto
              120A  158A         
  1921                           	line	72
  1922                           	
  1923  0C15                     l9181:	
  1924                           ;PWM.c: 72: lcd_putch(37);
  1925  0C15  3025               	movlw	(025h)
  1926  0C16  160A  158A  27E9   	fcall	_lcd_putch
              120A  158A         
  1927                           	line	73
  1928                           	
  1929  0C1B                     l9183:	
  1930                           ;PWM.c: 73: pause(10);
  1931  0C1B  300A               	movlw	low(0Ah)
  1932  0C1C  00F0               	movwf	(?_pause)
  1933  0C1D  3000               	movlw	high(0Ah)
  1934  0C1E  00F1               	movwf	((?_pause))+1
  1935  0C1F  120A  118A  2003   	fcall	_pause
              120A  158A         
  1936                           	line	76
  1937                           	
  1938  0C24                     l9185:	
  1939                           ;PWM.c: 76: ADCON0 = 0b00011101;
  1940  0C24  301D               	movlw	(01Dh)
  1941  0C25  1283               	bcf	status, 5	;RP0=0, select bank0
  1942  0C26  1303               	bcf	status, 6	;RP1=0, select bank0
  1943  0C27  009F               	movwf	(31)	;volatile
  1944                           	line	77
  1945                           	
  1946  0C28                     l9187:	
  1947                           ;PWM.c: 77: GO_DONE=1;
  1948  0C28  149F               	bsf	(249/8),(249)&7
  1949                           	line	78
  1950                           ;PWM.c: 78: while(GO_DONE==1);
  1951  0C29  2C2A               	goto	l1058
  1952                           	
  1953  0C2A                     l1059:	
  1954                           	
  1955  0C2A                     l1058:	
  1956  0C2A  189F               	btfsc	(249/8),(249)&7
  1957  0C2B  2C2D               	goto	u5081
  1958  0C2C  2C2E               	goto	u5080
  1959  0C2D                     u5081:
  1960  0C2D  2C2A               	goto	l1058
  1961  0C2E                     u5080:
  1962                           	
  1963  0C2E                     l1060:	
  1964                           	line	79
  1965                           ;PWM.c: 79: ADON = 0;
  1966  0C2E  101F               	bcf	(248/8),(248)&7
  1967                           	line	80
  1968                           	
  1969  0C2F                     l9189:	
  1970                           ;PWM.c: 80: read = (ADRESH << 2)|(ADRESL >> 6);
  1971  0C2F  1683               	bsf	status, 5	;RP0=1, select bank1
  1972  0C30  1303               	bcf	status, 6	;RP1=0, select bank1
  1973  0C31  081E               	movf	(158)^080h,w	;volatile
  1974  0C32  00B7               	movwf	(??_main+0)^080h+0
  1975  0C33  3006               	movlw	06h
  1976  0C34                     u5095:
  1977  0C34  1003               	clrc
  1978  0C35  0CB7               	rrf	(??_main+0)^080h+0,f
  1979  0C36  3EFF               	addlw	-1
  1980  0C37  1D03               	skipz
  1981  0C38  2C34               	goto	u5095
  1982  0C39  0837               	movf	0+(??_main+0)^080h+0,w
  1983  0C3A  00B8               	movwf	(??_main+1)^080h+0
  1984  0C3B  01B9               	clrf	(??_main+1)^080h+0+1
  1985  0C3C  1283               	bcf	status, 5	;RP0=0, select bank0
  1986  0C3D  1303               	bcf	status, 6	;RP1=0, select bank0
  1987  0C3E  081E               	movf	(30),w	;volatile
  1988  0C3F  1683               	bsf	status, 5	;RP0=1, select bank1
  1989  0C40  1303               	bcf	status, 6	;RP1=0, select bank1
  1990  0C41  00BA               	movwf	(??_main+3)^080h+0
  1991  0C42  01BB               	clrf	(??_main+3)^080h+0+1
  1992  0C43  3002               	movlw	02h
  1993  0C44  00FF               	movwf	btemp+1
  1994  0C45                     u5105:
  1995  0C45  1003               	clrc
  1996  0C46  0DBA               	rlf	(??_main+3)^080h+0,f
  1997  0C47  0DBB               	rlf	(??_main+3)^080h+1,f
  1998  0C48  0BFF               	decfsz	btemp+1,f
  1999  0C49  2C45               	goto	u5105
  2000  0C4A  0838               	movf	0+(??_main+1)^080h+0,w
  2001  0C4B  043A               	iorwf	0+(??_main+3)^080h+0,w
  2002  0C4C  1283               	bcf	status, 5	;RP0=0, select bank0
  2003  0C4D  1303               	bcf	status, 6	;RP1=0, select bank0
  2004  0C4E  00EC               	movwf	(_read)
  2005  0C4F  1683               	bsf	status, 5	;RP0=1, select bank1
  2006  0C50  1303               	bcf	status, 6	;RP1=0, select bank1
  2007  0C51  0839               	movf	1+(??_main+1)^080h+0,w
  2008  0C52  043B               	iorwf	1+(??_main+3)^080h+0,w
  2009  0C53  1283               	bcf	status, 5	;RP0=0, select bank0
  2010  0C54  1303               	bcf	status, 6	;RP1=0, select bank0
  2011  0C55  00ED               	movwf	1+(_read)
  2012                           	line	81
  2013                           	
  2014  0C56                     l9191:	
  2015                           ;PWM.c: 81: adc = (read*0.0048875855327468);
  2016  0C56  3028               	movlw	0x28
  2017  0C57  00B5               	movwf	(?___ftmul)
  2018  0C58  30A0               	movlw	0xa0
  2019  0C59  00B6               	movwf	(?___ftmul+1)
  2020  0C5A  303B               	movlw	0x3b
  2021  0C5B  00B7               	movwf	(?___ftmul+2)
  2022  0C5C  086D               	movf	(_read+1),w
  2023  0C5D  01F9               	clrf	(?___awtoft+1)
  2024  0C5E  07F9               	addwf	(?___awtoft+1)
  2025  0C5F  086C               	movf	(_read),w
  2026  0C60  01F8               	clrf	(?___awtoft)
  2027  0C61  07F8               	addwf	(?___awtoft)
  2028                           
  2029  0C62  160A  118A  2125   	fcall	___awtoft
              120A  158A         
  2030  0C67  0878               	movf	(0+(?___awtoft)),w
  2031  0C68  1283               	bcf	status, 5	;RP0=0, select bank0
  2032  0C69  1303               	bcf	status, 6	;RP1=0, select bank0
  2033  0C6A  00B8               	movwf	0+(?___ftmul)+03h
  2034  0C6B  0879               	movf	(1+(?___awtoft)),w
  2035  0C6C  00B9               	movwf	1+(?___ftmul)+03h
  2036  0C6D  087A               	movf	(2+(?___awtoft)),w
  2037  0C6E  00BA               	movwf	2+(?___ftmul)+03h
  2038  0C6F  120A  118A  201E   	fcall	___ftmul
              120A  158A         
  2039  0C74  1283               	bcf	status, 5	;RP0=0, select bank0
  2040  0C75  1303               	bcf	status, 6	;RP1=0, select bank0
  2041  0C76  0835               	movf	(0+(?___ftmul)),w
  2042  0C77  1683               	bsf	status, 5	;RP0=1, select bank1
  2043  0C78  1303               	bcf	status, 6	;RP1=0, select bank1
  2044  0C79  00BC               	movwf	(_adc)^080h
  2045  0C7A  1283               	bcf	status, 5	;RP0=0, select bank0
  2046  0C7B  1303               	bcf	status, 6	;RP1=0, select bank0
  2047  0C7C  0836               	movf	(1+(?___ftmul)),w
  2048  0C7D  1683               	bsf	status, 5	;RP0=1, select bank1
  2049  0C7E  1303               	bcf	status, 6	;RP1=0, select bank1
  2050  0C7F  00BD               	movwf	(_adc+1)^080h
  2051  0C80  1283               	bcf	status, 5	;RP0=0, select bank0
  2052  0C81  1303               	bcf	status, 6	;RP1=0, select bank0
  2053  0C82  0837               	movf	(2+(?___ftmul)),w
  2054  0C83  1683               	bsf	status, 5	;RP0=1, select bank1
  2055  0C84  1303               	bcf	status, 6	;RP1=0, select bank1
  2056  0C85  00BE               	movwf	(_adc+2)^080h
  2057                           	line	82
  2058                           	
  2059  0C86                     l9193:	
  2060                           ;PWM.c: 82: CCPR2L = ADRESH;
  2061  0C86  1283               	bcf	status, 5	;RP0=0, select bank0
  2062  0C87  1303               	bcf	status, 6	;RP1=0, select bank0
  2063  0C88  081E               	movf	(30),w	;volatile
  2064  0C89  009B               	movwf	(27)	;volatile
  2065                           	line	83
  2066                           	
  2067  0C8A                     l9195:	
  2068                           ;PWM.c: 83: CCP2CON=0b00001100|(ADRESL >> 2);
  2069  0C8A  1683               	bsf	status, 5	;RP0=1, select bank1
  2070  0C8B  1303               	bcf	status, 6	;RP1=0, select bank1
  2071  0C8C  081E               	movf	(158)^080h,w	;volatile
  2072  0C8D  00B7               	movwf	(??_main+0)^080h+0
  2073  0C8E  3002               	movlw	02h
  2074  0C8F                     u5115:
  2075  0C8F  1003               	clrc
  2076  0C90  0CB7               	rrf	(??_main+0)^080h+0,f
  2077  0C91  3EFF               	addlw	-1
  2078  0C92  1D03               	skipz
  2079  0C93  2C8F               	goto	u5115
  2080  0C94  0837               	movf	0+(??_main+0)^080h+0,w
  2081  0C95  380C               	iorlw	0Ch
  2082  0C96  1283               	bcf	status, 5	;RP0=0, select bank0
  2083  0C97  1303               	bcf	status, 6	;RP1=0, select bank0
  2084  0C98  009D               	movwf	(29)	;volatile
  2085                           	line	84
  2086                           	
  2087  0C99                     l9197:	
  2088                           ;PWM.c: 84: lcd_goto(0xC0);
  2089  0C99  30C0               	movlw	(0C0h)
  2090  0C9A  160A  158A  27DE   	fcall	_lcd_goto
              120A  158A         
  2091                           	line	85
  2092                           	
  2093  0C9F                     l9199:	
  2094                           ;PWM.c: 85: sprintf(buffer,"V=%.3f",adc);
  2095  0C9F  308E               	movlw	((STR_4-__stringbase))&0ffh
  2096  0CA0  1683               	bsf	status, 5	;RP0=1, select bank1
  2097  0CA1  1303               	bcf	status, 6	;RP1=0, select bank1
  2098  0CA2  00B7               	movwf	(??_main+0)^080h+0
  2099  0CA3  0837               	movf	(??_main+0)^080h+0,w
  2100  0CA4  1283               	bcf	status, 5	;RP0=0, select bank0
  2101  0CA5  1303               	bcf	status, 6	;RP1=0, select bank0
  2102  0CA6  00E2               	movwf	(?_sprintf)
  2103  0CA7  1683               	bsf	status, 5	;RP0=1, select bank1
  2104  0CA8  1303               	bcf	status, 6	;RP1=0, select bank1
  2105  0CA9  083C               	movf	(_adc)^080h,w
  2106  0CAA  1283               	bcf	status, 5	;RP0=0, select bank0
  2107  0CAB  1303               	bcf	status, 6	;RP1=0, select bank0
  2108  0CAC  00E3               	movwf	0+(?_sprintf)+01h
  2109  0CAD  1683               	bsf	status, 5	;RP0=1, select bank1
  2110  0CAE  1303               	bcf	status, 6	;RP1=0, select bank1
  2111  0CAF  083D               	movf	(_adc+1)^080h,w
  2112  0CB0  1283               	bcf	status, 5	;RP0=0, select bank0
  2113  0CB1  1303               	bcf	status, 6	;RP1=0, select bank0
  2114  0CB2  00E4               	movwf	1+(?_sprintf)+01h
  2115  0CB3  1683               	bsf	status, 5	;RP0=1, select bank1
  2116  0CB4  1303               	bcf	status, 6	;RP1=0, select bank1
  2117  0CB5  083E               	movf	(_adc+2)^080h,w
  2118  0CB6  1283               	bcf	status, 5	;RP0=0, select bank0
  2119  0CB7  1303               	bcf	status, 6	;RP1=0, select bank0
  2120  0CB8  00E5               	movwf	2+(?_sprintf)+01h
  2121  0CB9  30C2               	movlw	(_buffer)&0ffh
  2122  0CBA  120A  118A  210C   	fcall	_sprintf
              120A  158A         
  2123                           	line	86
  2124                           	
  2125  0CBF                     l9201:	
  2126                           ;PWM.c: 86: lcd_puts(buffer);
  2127  0CBF  30C2               	movlw	(_buffer&0ffh)
  2128  0CC0  00F6               	movwf	(?_lcd_puts)
  2129  0CC1  3000               	movlw	(0x1/2)
  2130  0CC2  00F7               	movwf	(?_lcd_puts+1)
  2131  0CC3  160A  118A  2177   	fcall	_lcd_puts
              120A  158A         
  2132                           	line	87
  2133                           	
  2134  0CC8                     l9203:	
  2135                           ;PWM.c: 87: lcd_goto(0xC8);
  2136  0CC8  30C8               	movlw	(0C8h)
  2137  0CC9  160A  158A  27DE   	fcall	_lcd_goto
              120A  158A         
  2138                           	line	88
  2139                           	
  2140  0CCE                     l9205:	
  2141                           ;PWM.c: 88: porcentaje = read*0.09765625;
  2142  0CCE  3000               	movlw	0x0
  2143  0CCF  1283               	bcf	status, 5	;RP0=0, select bank0
  2144  0CD0  1303               	bcf	status, 6	;RP1=0, select bank0
  2145  0CD1  00B5               	movwf	(?___ftmul)
  2146  0CD2  30C8               	movlw	0xc8
  2147  0CD3  00B6               	movwf	(?___ftmul+1)
  2148  0CD4  303D               	movlw	0x3d
  2149  0CD5  00B7               	movwf	(?___ftmul+2)
  2150  0CD6  086D               	movf	(_read+1),w
  2151  0CD7  01F9               	clrf	(?___awtoft+1)
  2152  0CD8  07F9               	addwf	(?___awtoft+1)
  2153  0CD9  086C               	movf	(_read),w
  2154  0CDA  01F8               	clrf	(?___awtoft)
  2155  0CDB  07F8               	addwf	(?___awtoft)
  2156                           
  2157  0CDC  160A  118A  2125   	fcall	___awtoft
              120A  158A         
  2158  0CE1  0878               	movf	(0+(?___awtoft)),w
  2159  0CE2  1283               	bcf	status, 5	;RP0=0, select bank0
  2160  0CE3  1303               	bcf	status, 6	;RP1=0, select bank0
  2161  0CE4  00B8               	movwf	0+(?___ftmul)+03h
  2162  0CE5  0879               	movf	(1+(?___awtoft)),w
  2163  0CE6  00B9               	movwf	1+(?___ftmul)+03h
  2164  0CE7  087A               	movf	(2+(?___awtoft)),w
  2165  0CE8  00BA               	movwf	2+(?___ftmul)+03h
  2166  0CE9  120A  118A  201E   	fcall	___ftmul
              120A  158A         
  2167  0CEE  1283               	bcf	status, 5	;RP0=0, select bank0
  2168  0CEF  1303               	bcf	status, 6	;RP1=0, select bank0
  2169  0CF0  0835               	movf	(0+(?___ftmul)),w
  2170  0CF1  1683               	bsf	status, 5	;RP0=1, select bank1
  2171  0CF2  1303               	bcf	status, 6	;RP1=0, select bank1
  2172  0CF3  00BF               	movwf	(_porcentaje)^080h
  2173  0CF4  1283               	bcf	status, 5	;RP0=0, select bank0
  2174  0CF5  1303               	bcf	status, 6	;RP1=0, select bank0
  2175  0CF6  0836               	movf	(1+(?___ftmul)),w
  2176  0CF7  1683               	bsf	status, 5	;RP0=1, select bank1
  2177  0CF8  1303               	bcf	status, 6	;RP1=0, select bank1
  2178  0CF9  00C0               	movwf	(_porcentaje+1)^080h
  2179  0CFA  1283               	bcf	status, 5	;RP0=0, select bank0
  2180  0CFB  1303               	bcf	status, 6	;RP1=0, select bank0
  2181  0CFC  0837               	movf	(2+(?___ftmul)),w
  2182  0CFD  1683               	bsf	status, 5	;RP0=1, select bank1
  2183  0CFE  1303               	bcf	status, 6	;RP1=0, select bank1
  2184  0CFF  00C1               	movwf	(_porcentaje+2)^080h
  2185                           	line	89
  2186                           	
  2187  0D00                     l9207:	
  2188                           ;PWM.c: 89: sprintf(buffer,"P=%.2f",porcentaje);
  2189  0D00  3087               	movlw	((STR_5-__stringbase))&0ffh
  2190  0D01  00B7               	movwf	(??_main+0)^080h+0
  2191  0D02  0837               	movf	(??_main+0)^080h+0,w
  2192  0D03  1283               	bcf	status, 5	;RP0=0, select bank0
  2193  0D04  1303               	bcf	status, 6	;RP1=0, select bank0
  2194  0D05  00E2               	movwf	(?_sprintf)
  2195  0D06  1683               	bsf	status, 5	;RP0=1, select bank1
  2196  0D07  1303               	bcf	status, 6	;RP1=0, select bank1
  2197  0D08  083F               	movf	(_porcentaje)^080h,w
  2198  0D09  1283               	bcf	status, 5	;RP0=0, select bank0
  2199  0D0A  1303               	bcf	status, 6	;RP1=0, select bank0
  2200  0D0B  00E3               	movwf	0+(?_sprintf)+01h
  2201  0D0C  1683               	bsf	status, 5	;RP0=1, select bank1
  2202  0D0D  1303               	bcf	status, 6	;RP1=0, select bank1
  2203  0D0E  0840               	movf	(_porcentaje+1)^080h,w
  2204  0D0F  1283               	bcf	status, 5	;RP0=0, select bank0
  2205  0D10  1303               	bcf	status, 6	;RP1=0, select bank0
  2206  0D11  00E4               	movwf	1+(?_sprintf)+01h
  2207  0D12  1683               	bsf	status, 5	;RP0=1, select bank1
  2208  0D13  1303               	bcf	status, 6	;RP1=0, select bank1
  2209  0D14  0841               	movf	(_porcentaje+2)^080h,w
  2210  0D15  1283               	bcf	status, 5	;RP0=0, select bank0
  2211  0D16  1303               	bcf	status, 6	;RP1=0, select bank0
  2212  0D17  00E5               	movwf	2+(?_sprintf)+01h
  2213  0D18  30C2               	movlw	(_buffer)&0ffh
  2214  0D19  120A  118A  210C   	fcall	_sprintf
              120A  158A         
  2215                           	line	90
  2216                           	
  2217  0D1E                     l9209:	
  2218                           ;PWM.c: 90: lcd_puts(buffer);
  2219  0D1E  30C2               	movlw	(_buffer&0ffh)
  2220  0D1F  00F6               	movwf	(?_lcd_puts)
  2221  0D20  3000               	movlw	(0x1/2)
  2222  0D21  00F7               	movwf	(?_lcd_puts+1)
  2223  0D22  160A  118A  2177   	fcall	_lcd_puts
              120A  158A         
  2224                           	line	91
  2225                           	
  2226  0D27                     l9211:	
  2227                           ;PWM.c: 91: lcd_goto(0xCF);
  2228  0D27  30CF               	movlw	(0CFh)
  2229  0D28  160A  158A  27DE   	fcall	_lcd_goto
              120A  158A         
  2230                           	line	92
  2231                           	
  2232  0D2D                     l9213:	
  2233                           ;PWM.c: 92: lcd_putch(37);
  2234  0D2D  3025               	movlw	(025h)
  2235  0D2E  160A  158A  27E9   	fcall	_lcd_putch
              120A  158A         
  2236                           	line	93
  2237                           	
  2238  0D33                     l9215:	
  2239                           ;PWM.c: 93: pause(10);
  2240  0D33  300A               	movlw	low(0Ah)
  2241  0D34  00F0               	movwf	(?_pause)
  2242  0D35  3000               	movlw	high(0Ah)
  2243  0D36  00F1               	movwf	((?_pause))+1
  2244  0D37  120A  118A  2003   	fcall	_pause
              120A  158A         
  2245  0D3C  2B01               	goto	l9151
  2246                           	line	96
  2247                           	
  2248  0D3D                     l1061:	
  2249                           	line	52
  2250  0D3D  2B01               	goto	l9151
  2251                           	
  2252  0D3E                     l1062:	
  2253                           	line	97
  2254                           	
  2255  0D3E                     l1063:	
  2256                           	global	start
  2257  0D3E  120A  118A  2800   	ljmp	start
  2258                           	opt stack 0
  2259                           GLOBAL	__end_of_main
  2260  0D41                     	__end_of_main:
  2261 ;; =============== function _main ends ============
  2262                           
  2263                           	signat	_main,88
  2264                           	global	_lcd_init
  2265                           psect	text597,local,class=CODE,delta=2
  2266                           global __ptext597
  2267  11D4                     __ptext597:
  2268                           
  2269 ;; *************** function _lcd_init *****************
  2270 ;; Defined at:
  2271 ;;		line 89 in file "C:\PIC_PROGS\C\PWM\lcd.c"
  2272 ;; Parameters:    Size  Location     Type
  2273 ;;		None
  2274 ;; Auto vars:     Size  Location     Type
  2275 ;;  init_value      1    7[COMMON] unsigned char 
  2276 ;; Return value:  Size  Location     Type
  2277 ;;		None               void
  2278 ;; Registers used:
  2279 ;;		wreg, status,2, status,0, pclath, cstack
  2280 ;; Tracked objects:
  2281 ;;		On entry : 0/0
  2282 ;;		On exit  : 0/0
  2283 ;;		Unchanged: 0/0
  2284 ;; Data sizes:     COMMON   BANK0   BANK1   BANK3   BANK2
  2285 ;;      Params:         0       0       0       0       0
  2286 ;;      Locals:         1       0       0       0       0
  2287 ;;      Temps:          1       0       0       0       0
  2288 ;;      Totals:         2       0       0       0       0
  2289 ;;Total ram usage:        2 bytes
  2290 ;; Hardware stack levels used:    1
  2291 ;; Hardware stack levels required when called:    4
  2292 ;; This function calls:
  2293 ;;		_pause
  2294 ;;		_lcd_write
  2295 ;;		_lcd_clear
  2296 ;; This function is called by:
  2297 ;;		_main
  2298 ;; This function uses a non-reentrant model
  2299 ;;
  2300                           psect	text597
  2301                           	file	"C:\PIC_PROGS\C\PWM\lcd.c"
  2302                           	line	89
  2303                           	global	__size_of_lcd_init
  2304  005D                     	__size_of_lcd_init	equ	__end_of_lcd_init-_lcd_init
  2305                           	
  2306  11D4                     _lcd_init:	
  2307                           	opt	stack 3
  2308                           ; Regs used in _lcd_init: [wreg+status,2+status,0+pclath+cstack]
  2309                           	line	94
  2310                           	
  2311  11D4                     l9071:	
  2312                           ;lcd.c: 90: char init_value;
  2313                           ;lcd.c: 94: init_value = 0x3;
  2314  11D4  3003               	movlw	(03h)
  2315  11D5  00F6               	movwf	(??_lcd_init+0)+0
  2316  11D6  0876               	movf	(??_lcd_init+0)+0,w
  2317  11D7  00F7               	movwf	(lcd_init@init_value)
  2318                           	line	95
  2319                           	
  2320  11D8                     l9073:	
  2321                           ;lcd.c: 95: TRISA=0;
  2322  11D8  1683               	bsf	status, 5	;RP0=1, select bank1
  2323  11D9  1303               	bcf	status, 6	;RP1=0, select bank1
  2324  11DA  0185               	clrf	(133)^080h	;volatile
  2325                           	line	96
  2326                           	
  2327  11DB                     l9075:	
  2328                           ;lcd.c: 96: TRISC=0;
  2329  11DB  0187               	clrf	(135)^080h	;volatile
  2330                           	line	97
  2331                           	
  2332  11DC                     l9077:	
  2333                           ;lcd.c: 97: RA2 = 0;
  2334  11DC  1283               	bcf	status, 5	;RP0=0, select bank0
  2335  11DD  1303               	bcf	status, 6	;RP1=0, select bank0
  2336  11DE  1105               	bcf	(42/8),(42)&7
  2337                           	line	98
  2338                           	
  2339  11DF                     l9079:	
  2340                           ;lcd.c: 98: RA1 = 0;
  2341  11DF  1085               	bcf	(41/8),(41)&7
  2342                           	line	99
  2343                           	
  2344  11E0                     l9081:	
  2345                           ;lcd.c: 99: RA4 = 0;
  2346  11E0  1205               	bcf	(44/8),(44)&7
  2347                           	line	101
  2348                           	
  2349  11E1                     l9083:	
  2350                           ;lcd.c: 101: pause (15);
  2351  11E1  300F               	movlw	low(0Fh)
  2352  11E2  00F0               	movwf	(?_pause)
  2353  11E3  3000               	movlw	high(0Fh)
  2354  11E4  00F1               	movwf	((?_pause))+1
  2355  11E5  120A  118A  2003   	fcall	_pause
              160A  118A         
  2356                           	line	102
  2357                           	
  2358  11EA                     l9085:	
  2359                           ;lcd.c: 102: PORTD = init_value;
  2360  11EA  0877               	movf	(lcd_init@init_value),w
  2361  11EB  1283               	bcf	status, 5	;RP0=0, select bank0
  2362  11EC  1303               	bcf	status, 6	;RP1=0, select bank0
  2363  11ED  0088               	movwf	(8)	;volatile
  2364                           	line	103
  2365                           	
  2366  11EE                     l9087:	
  2367                           ;lcd.c: 103: ((RA1 = 1),(RA1=0));
  2368  11EE  1485               	bsf	(41/8),(41)&7
  2369                           	
  2370  11EF                     l9089:	
  2371  11EF  1085               	bcf	(41/8),(41)&7
  2372                           	line	104
  2373                           ;lcd.c: 104: pause(10);
  2374  11F0  300A               	movlw	low(0Ah)
  2375  11F1  00F0               	movwf	(?_pause)
  2376  11F2  3000               	movlw	high(0Ah)
  2377  11F3  00F1               	movwf	((?_pause))+1
  2378  11F4  120A  118A  2003   	fcall	_pause
              160A  118A         
  2379                           	line	105
  2380                           	
  2381  11F9                     l9091:	
  2382                           ;lcd.c: 105: ((RA1 = 1),(RA1=0));
  2383  11F9  1283               	bcf	status, 5	;RP0=0, select bank0
  2384  11FA  1303               	bcf	status, 6	;RP1=0, select bank0
  2385  11FB  1485               	bsf	(41/8),(41)&7
  2386                           	
  2387  11FC                     l9093:	
  2388  11FC  1085               	bcf	(41/8),(41)&7
  2389                           	line	106
  2390                           ;lcd.c: 106: pause(10);
  2391  11FD  300A               	movlw	low(0Ah)
  2392  11FE  00F0               	movwf	(?_pause)
  2393  11FF  3000               	movlw	high(0Ah)
  2394  1200  00F1               	movwf	((?_pause))+1
  2395  1201  120A  118A  2003   	fcall	_pause
              160A  118A         
  2396                           	line	107
  2397                           	
  2398  1206                     l9095:	
  2399                           ;lcd.c: 107: ((RA1 = 1),(RA1=0));
  2400  1206  1283               	bcf	status, 5	;RP0=0, select bank0
  2401  1207  1303               	bcf	status, 6	;RP1=0, select bank0
  2402  1208  1485               	bsf	(41/8),(41)&7
  2403                           	
  2404  1209                     l9097:	
  2405  1209  1085               	bcf	(41/8),(41)&7
  2406                           	line	108
  2407                           ;lcd.c: 108: pause(10);
  2408  120A  300A               	movlw	low(0Ah)
  2409  120B  00F0               	movwf	(?_pause)
  2410  120C  3000               	movlw	high(0Ah)
  2411  120D  00F1               	movwf	((?_pause))+1
  2412  120E  120A  118A  2003   	fcall	_pause
              160A  118A         
  2413                           	line	109
  2414                           	
  2415  1213                     l9099:	
  2416                           ;lcd.c: 109: PORTD = 2;
  2417  1213  3002               	movlw	(02h)
  2418  1214  1283               	bcf	status, 5	;RP0=0, select bank0
  2419  1215  1303               	bcf	status, 6	;RP1=0, select bank0
  2420  1216  0088               	movwf	(8)	;volatile
  2421                           	line	110
  2422                           	
  2423  1217                     l9101:	
  2424                           ;lcd.c: 110: ((RA1 = 1),(RA1=0));
  2425  1217  1485               	bsf	(41/8),(41)&7
  2426                           	
  2427  1218                     l9103:	
  2428  1218  1085               	bcf	(41/8),(41)&7
  2429                           	line	112
  2430                           	
  2431  1219                     l9105:	
  2432                           ;lcd.c: 112: lcd_write(0x28);
  2433  1219  3028               	movlw	(028h)
  2434  121A  160A  118A  2106   	fcall	_lcd_write
              160A  118A         
  2435                           	line	114
  2436                           	
  2437  121F                     l9107:	
  2438                           ;lcd.c: 114: lcd_write(0xF);
  2439  121F  300F               	movlw	(0Fh)
  2440  1220  160A  118A  2106   	fcall	_lcd_write
              160A  118A         
  2441                           	line	115
  2442                           	
  2443  1225                     l9109:	
  2444                           ;lcd.c: 115: lcd_clear();
  2445  1225  160A  118A  20C4   	fcall	_lcd_clear
              160A  118A         
  2446                           	line	116
  2447                           	
  2448  122A                     l9111:	
  2449                           ;lcd.c: 116: lcd_write(0x6);
  2450  122A  3006               	movlw	(06h)
  2451  122B  160A  118A  2106   	fcall	_lcd_write
              160A  118A         
  2452                           	line	117
  2453                           	
  2454  1230                     l1918:	
  2455  1230  0008               	return
  2456                           	opt stack 0
  2457                           GLOBAL	__end_of_lcd_init
  2458  1231                     	__end_of_lcd_init:
  2459 ;; =============== function _lcd_init ends ============
  2460                           
  2461                           	signat	_lcd_init,88
  2462                           	global	_lcd_putch
  2463                           psect	text598,local,class=CODE,delta=2
  2464                           global __ptext598
  2465  1FE9                     __ptext598:
  2466                           
  2467 ;; *************** function _lcd_putch *****************
  2468 ;; Defined at:
  2469 ;;		line 69 in file "C:\PIC_PROGS\C\PWM\lcd.c"
  2470 ;; Parameters:    Size  Location     Type
  2471 ;;  c               1    wreg     unsigned char 
  2472 ;; Auto vars:     Size  Location     Type
  2473 ;;  c               1    6[COMMON] unsigned char 
  2474 ;; Return value:  Size  Location     Type
  2475 ;;		None               void
  2476 ;; Registers used:
  2477 ;;		wreg, status,2, status,0, pclath, cstack
  2478 ;; Tracked objects:
  2479 ;;		On entry : 0/0
  2480 ;;		On exit  : 0/0
  2481 ;;		Unchanged: 0/0
  2482 ;; Data sizes:     COMMON   BANK0   BANK1   BANK3   BANK2
  2483 ;;      Params:         0       0       0       0       0
  2484 ;;      Locals:         1       0       0       0       0
  2485 ;;      Temps:          0       0       0       0       0
  2486 ;;      Totals:         1       0       0       0       0
  2487 ;;Total ram usage:        1 bytes
  2488 ;; Hardware stack levels used:    1
  2489 ;; Hardware stack levels required when called:    3
  2490 ;; This function calls:
  2491 ;;		_lcd_write
  2492 ;; This function is called by:
  2493 ;;		_main
  2494 ;; This function uses a non-reentrant model
  2495 ;;
  2496                           psect	text598
  2497                           	file	"C:\PIC_PROGS\C\PWM\lcd.c"
  2498                           	line	69
  2499                           	global	__size_of_lcd_putch
  2500  000B                     	__size_of_lcd_putch	equ	__end_of_lcd_putch-_lcd_putch
  2501                           	
  2502  1FE9                     _lcd_putch:	
  2503                           	opt	stack 4
  2504                           ; Regs used in _lcd_putch: [wreg+status,2+status,0+pclath+cstack]
  2505                           ;lcd_putch@c stored from wreg
  2506  1FE9  00F6               	movwf	(lcd_putch@c)
  2507                           	line	70
  2508                           	
  2509  1FEA                     l9067:	
  2510                           ;lcd.c: 70: RA2 = 1;
  2511  1FEA  1283               	bcf	status, 5	;RP0=0, select bank0
  2512  1FEB  1303               	bcf	status, 6	;RP1=0, select bank0
  2513  1FEC  1505               	bsf	(42/8),(42)&7
  2514                           	line	71
  2515                           	
  2516  1FED                     l9069:	
  2517                           ;lcd.c: 71: lcd_write( c );
  2518  1FED  0876               	movf	(lcd_putch@c),w
  2519  1FEE  160A  118A  2106   	fcall	_lcd_write
              160A  158A         
  2520                           	line	72
  2521                           	
  2522  1FF3                     l1912:	
  2523  1FF3  0008               	return
  2524                           	opt stack 0
  2525                           GLOBAL	__end_of_lcd_putch
  2526  1FF4                     	__end_of_lcd_putch:
  2527 ;; =============== function _lcd_putch ends ============
  2528                           
  2529                           	signat	_lcd_putch,4216
  2530                           	global	_sprintf
  2531                           psect	text599,local,class=CODE,delta=2
  2532                           global __ptext599
  2533  010C                     __ptext599:
  2534                           
  2535 ;; *************** function _sprintf *****************
  2536 ;; Defined at:
  2537 ;;		line 488 in file "C:\Program Files (x86)\HI-TECH Software\PICC\9.82\lib\doprnt.c"
  2538 ;; Parameters:    Size  Location     Type
  2539 ;;  sp              1    wreg     PTR unsigned char 
  2540 ;;		 -> buffer(20), 
  2541 ;;  f               1   66[BANK0 ] PTR const unsigned char 
  2542 ;;		 -> STR_5(7), STR_4(7), STR_3(7), STR_2(7), 
  2543 ;; Auto vars:     Size  Location     Type
  2544 ;;  sp              1   16[BANK1 ] PTR unsigned char 
  2545 ;;		 -> buffer(20), 
  2546 ;;  _val            4   10[BANK1 ] struct .
  2547 ;;  fval            3   19[BANK1 ] struct .
  2548 ;;  integ           3    7[BANK1 ] struct .
  2549 ;;  ival            3    0        struct .
  2550 ;;  prec            2   17[BANK1 ] int 
  2551 ;;  exp             2   14[BANK1 ] int 
  2552 ;;  flag            2    5[BANK1 ] unsigned short 
  2553 ;;  width           2    0        int 
  2554 ;;  c               1   22[BANK1 ] char 
  2555 ;;  ap              1    4[BANK1 ] PTR void [1]
  2556 ;;		 -> ?_sprintf(2), 
  2557 ;;  d               1    0        unsigned char 
  2558 ;; Return value:  Size  Location     Type
  2559 ;;                  2   66[BANK0 ] int 
  2560 ;; Registers used:
  2561 ;;		wreg, fsr0l, fsr0h, status,2, status,0, btemp+1, pclath, cstack
  2562 ;; Tracked objects:
  2563 ;;		On entry : 0/0
  2564 ;;		On exit  : 0/0
  2565 ;;		Unchanged: 0/0
  2566 ;; Data sizes:     COMMON   BANK0   BANK1   BANK3   BANK2
  2567 ;;      Params:         0       4       0       0       0
  2568 ;;      Locals:         0       0      23       0       0
  2569 ;;      Temps:          0       6       0       0       0
  2570 ;;      Totals:         0      10      23       0       0
  2571 ;;Total ram usage:       33 bytes
  2572 ;; Hardware stack levels used:    1
  2573 ;; Hardware stack levels required when called:    3
  2574 ;; This function calls:
  2575 ;;		___wmul
  2576 ;;		_isdigit
  2577 ;;		___ftge
  2578 ;;		___ftneg
  2579 ;;		___awdiv
  2580 ;;		_scale
  2581 ;;		___ftmul
  2582 ;;		_fround
  2583 ;;		___ftadd
  2584 ;;		___fttol
  2585 ;;		__div_to_l_
  2586 ;;		__tdiv_to_l_
  2587 ;;		___lltoft
  2588 ;;		___ftsub
  2589 ;;		___lldiv
  2590 ;;		___llmod
  2591 ;; This function is called by:
  2592 ;;		_main
  2593 ;; This function uses a non-reentrant model
  2594 ;;
  2595                           psect	text599
  2596                           	file	"C:\Program Files (x86)\HI-TECH Software\PICC\9.82\sources\doprnt.c"
  2597                           	line	488
  2598                           	global	__size_of_sprintf
  2599  06F4                     	__size_of_sprintf	equ	__end_of_sprintf-_sprintf
  2600                           	
  2601  010C                     _sprintf:	
  2602                           	opt	stack 4
  2603                           ; Regs used in _sprintf: [wreg-fsr0h+status,2+status,0+btemp+1+pclath+cstack]
  2604                           ;sprintf@sp stored from wreg
  2605                           	line	537
  2606  010C  1683               	bsf	status, 5	;RP0=1, select bank1
  2607  010D  1303               	bcf	status, 6	;RP1=0, select bank1
  2608  010E  00B0               	movwf	(sprintf@sp)^080h
  2609                           	
  2610  010F                     l8875:	
  2611  010F  3063               	movlw	(?_sprintf+01h)&0ffh
  2612  0110  1283               	bcf	status, 5	;RP0=0, select bank0
  2613  0111  1303               	bcf	status, 6	;RP1=0, select bank0
  2614  0112  00E6               	movwf	(??_sprintf+0)+0
  2615  0113  0866               	movf	(??_sprintf+0)+0,w
  2616  0114  1683               	bsf	status, 5	;RP0=1, select bank1
  2617  0115  1303               	bcf	status, 6	;RP1=0, select bank1
  2618  0116  00A4               	movwf	(sprintf@ap)^080h
  2619                           	line	540
  2620  0117  2FE3               	goto	l9061
  2621                           	
  2622  0118                     l4012:	
  2623                           	line	542
  2624                           	
  2625  0118                     l8877:	
  2626  0118  0836               	movf	(sprintf@c)^080h,w
  2627  0119  3A25               	xorlw	025h
  2628  011A  1903               	skipnz
  2629  011B  291D               	goto	u4661
  2630  011C  291E               	goto	u4660
  2631  011D                     u4661:
  2632  011D  2932               	goto	l8883
  2633  011E                     u4660:
  2634                           	line	545
  2635                           	
  2636  011E                     l8879:	
  2637  011E  0836               	movf	(sprintf@c)^080h,w
  2638  011F  1283               	bcf	status, 5	;RP0=0, select bank0
  2639  0120  1303               	bcf	status, 6	;RP1=0, select bank0
  2640  0121  00E6               	movwf	(??_sprintf+0)+0
  2641  0122  1683               	bsf	status, 5	;RP0=1, select bank1
  2642  0123  1303               	bcf	status, 6	;RP1=0, select bank1
  2643  0124  0830               	movf	(sprintf@sp)^080h,w
  2644  0125  0084               	movwf	fsr0
  2645  0126  1283               	bcf	status, 5	;RP0=0, select bank0
  2646  0127  1303               	bcf	status, 6	;RP1=0, select bank0
  2647  0128  0866               	movf	(??_sprintf+0)+0,w
  2648  0129  1383               	bcf	status, 7	;select IRP bank0
  2649  012A  0080               	movwf	indf
  2650                           	
  2651  012B                     l8881:	
  2652  012B  3001               	movlw	(01h)
  2653  012C  00E6               	movwf	(??_sprintf+0)+0
  2654  012D  0866               	movf	(??_sprintf+0)+0,w
  2655  012E  1683               	bsf	status, 5	;RP0=1, select bank1
  2656  012F  1303               	bcf	status, 6	;RP1=0, select bank1
  2657  0130  07B0               	addwf	(sprintf@sp)^080h,f
  2658                           	line	546
  2659  0131  2FE3               	goto	l9061
  2660                           	line	547
  2661                           	
  2662  0132                     l4013:	
  2663                           	line	552
  2664                           	
  2665  0132                     l8883:	
  2666  0132  01A5               	clrf	(sprintf@flag)^080h
  2667  0133  01A6               	clrf	(sprintf@flag+1)^080h
  2668                           	line	614
  2669                           	
  2670  0134                     l8885:	
  2671  0134  1283               	bcf	status, 5	;RP0=0, select bank0
  2672  0135  1303               	bcf	status, 6	;RP1=0, select bank0
  2673  0136  0862               	movf	(sprintf@f),w
  2674  0137  0084               	movwf	fsr0
  2675  0138  160A  118A  200A   	fcall	stringdir
              120A  118A         
  2676  013D  3A2E               	xorlw	02Eh
  2677  013E  1D03               	skipz
  2678  013F  2941               	goto	u4671
  2679  0140  2942               	goto	u4670
  2680  0141                     u4671:
  2681  0141  2999               	goto	l8899
  2682  0142                     u4670:
  2683                           	line	615
  2684                           	
  2685  0142                     l8887:	
  2686  0142  1683               	bsf	status, 5	;RP0=1, select bank1
  2687  0143  1303               	bcf	status, 6	;RP1=0, select bank1
  2688  0144  1726               	bsf	(sprintf@flag)^080h+(14/8),(14)&7
  2689                           	line	616
  2690                           	
  2691  0145                     l8889:	
  2692  0145  3001               	movlw	(01h)
  2693  0146  1283               	bcf	status, 5	;RP0=0, select bank0
  2694  0147  1303               	bcf	status, 6	;RP1=0, select bank0
  2695  0148  00E6               	movwf	(??_sprintf+0)+0
  2696  0149  0866               	movf	(??_sprintf+0)+0,w
  2697  014A  07E2               	addwf	(sprintf@f),f
  2698                           	line	624
  2699                           	
  2700  014B                     l8891:	
  2701  014B  1683               	bsf	status, 5	;RP0=1, select bank1
  2702  014C  1303               	bcf	status, 6	;RP1=0, select bank1
  2703  014D  01B1               	clrf	(sprintf@prec)^080h
  2704  014E  01B2               	clrf	(sprintf@prec+1)^080h
  2705                           	line	625
  2706  014F  2986               	goto	l8897
  2707                           	
  2708  0150                     l4016:	
  2709                           	line	626
  2710                           	
  2711  0150                     l8893:	
  2712  0150  1683               	bsf	status, 5	;RP0=1, select bank1
  2713  0151  1303               	bcf	status, 6	;RP1=0, select bank1
  2714  0152  0832               	movf	(sprintf@prec+1)^080h,w
  2715  0153  01F1               	clrf	(?___wmul+1)
  2716  0154  07F1               	addwf	(?___wmul+1)
  2717  0155  0831               	movf	(sprintf@prec)^080h,w
  2718  0156  01F0               	clrf	(?___wmul)
  2719  0157  07F0               	addwf	(?___wmul)
  2720                           
  2721  0158  300A               	movlw	low(0Ah)
  2722  0159  00F2               	movwf	0+(?___wmul)+02h
  2723  015A  3000               	movlw	high(0Ah)
  2724  015B  00F3               	movwf	(0+(?___wmul)+02h)+1
  2725  015C  160A  118A  214D   	fcall	___wmul
              120A  118A         
  2726  0161  1283               	bcf	status, 5	;RP0=0, select bank0
  2727  0162  1303               	bcf	status, 6	;RP1=0, select bank0
  2728  0163  0862               	movf	(sprintf@f),w
  2729  0164  0084               	movwf	fsr0
  2730  0165  160A  118A  200A   	fcall	stringdir
              120A  118A         
  2731  016A  0770               	addwf	(0+(?___wmul)),w
  2732  016B  00E6               	movwf	(??_sprintf+0)+0
  2733  016C  3000               	movlw	0
  2734  016D  1803               	skipnc
  2735  016E  3001               	movlw	1
  2736  016F  0771               	addwf	(1+(?___wmul)),w
  2737  0170  00E7               	movwf	1+(??_sprintf+0)+0
  2738  0171  0866               	movf	0+(??_sprintf+0)+0,w
  2739  0172  3ED0               	addlw	low(0FFD0h)
  2740  0173  1683               	bsf	status, 5	;RP0=1, select bank1
  2741  0174  1303               	bcf	status, 6	;RP1=0, select bank1
  2742  0175  00B1               	movwf	(sprintf@prec)^080h
  2743  0176  1283               	bcf	status, 5	;RP0=0, select bank0
  2744  0177  1303               	bcf	status, 6	;RP1=0, select bank0
  2745  0178  0867               	movf	1+(??_sprintf+0)+0,w
  2746  0179  1803               	skipnc
  2747  017A  3E01               	addlw	1
  2748  017B  3EFF               	addlw	high(0FFD0h)
  2749  017C  1683               	bsf	status, 5	;RP0=1, select bank1
  2750  017D  1303               	bcf	status, 6	;RP1=0, select bank1
  2751  017E  00B2               	movwf	1+(sprintf@prec)^080h
  2752                           	
  2753  017F                     l8895:	
  2754  017F  3001               	movlw	(01h)
  2755  0180  1283               	bcf	status, 5	;RP0=0, select bank0
  2756  0181  1303               	bcf	status, 6	;RP1=0, select bank0
  2757  0182  00E6               	movwf	(??_sprintf+0)+0
  2758  0183  0866               	movf	(??_sprintf+0)+0,w
  2759  0184  07E2               	addwf	(sprintf@f),f
  2760  0185  2986               	goto	l8897
  2761                           	
  2762  0186                     l4015:	
  2763                           	line	625
  2764                           	
  2765  0186                     l8897:	
  2766  0186  1283               	bcf	status, 5	;RP0=0, select bank0
  2767  0187  0862               	movf	(sprintf@f),w
  2768  0188  0084               	movwf	fsr0
  2769  0189  160A  118A  200A   	fcall	stringdir
              120A  118A         
  2770  018E  160A  118A  20D7   	fcall	_isdigit
              120A  118A         
  2771  0193  1803               	btfsc	status,0
  2772  0194  2996               	goto	u4681
  2773  0195  2997               	goto	u4680
  2774  0196                     u4681:
  2775  0196  2950               	goto	l8893
  2776  0197                     u4680:
  2777  0197  29A5               	goto	l8905
  2778                           	
  2779  0198                     l4017:	
  2780                           	line	628
  2781  0198  29A5               	goto	l8905
  2782                           	
  2783  0199                     l4014:	
  2784                           	line	629
  2785                           	
  2786  0199                     l8899:	
  2787  0199  1683               	bsf	status, 5	;RP0=1, select bank1
  2788  019A  1303               	bcf	status, 6	;RP1=0, select bank1
  2789  019B  01B1               	clrf	(sprintf@prec)^080h
  2790  019C  01B2               	clrf	(sprintf@prec+1)^080h
  2791                           	line	631
  2792                           	
  2793  019D                     l8901:	
  2794  019D  1626               	bsf	(sprintf@flag)^080h+(12/8),(12)&7
  2795  019E  29A5               	goto	l8905
  2796                           	line	633
  2797                           	
  2798  019F                     l4018:	
  2799                           	line	638
  2800  019F  29A5               	goto	l8905
  2801                           	line	640
  2802                           	
  2803  01A0                     l4020:	
  2804                           	line	641
  2805  01A0  2FFA               	goto	l9063
  2806                           	line	665
  2807                           	
  2808  01A1                     l4022:	
  2809                           	line	666
  2810  01A1  1526               	bsf	(sprintf@flag)^080h+(10/8),(10)&7
  2811                           	line	667
  2812  01A2  29BB               	goto	l8907
  2813                           	line	805
  2814                           	
  2815  01A3                     l4024:	
  2816                           	line	816
  2817  01A3  2FE3               	goto	l9061
  2818                           	line	825
  2819                           	
  2820  01A4                     l8903:	
  2821  01A4  29BB               	goto	l8907
  2822                           	line	638
  2823                           	
  2824  01A5                     l4019:	
  2825                           	
  2826  01A5                     l8905:	
  2827  01A5  3001               	movlw	01h
  2828  01A6  1283               	bcf	status, 5	;RP0=0, select bank0
  2829  01A7  1303               	bcf	status, 6	;RP1=0, select bank0
  2830  01A8  07E2               	addwf	(sprintf@f),f
  2831  01A9  30FF               	movlw	-01h
  2832  01AA  0762               	addwf	(sprintf@f),w
  2833  01AB  0084               	movwf	fsr0
  2834  01AC  160A  118A  200A   	fcall	stringdir
              120A  118A         
  2835  01B1  1683               	bsf	status, 5	;RP0=1, select bank1
  2836  01B2  1303               	bcf	status, 6	;RP1=0, select bank1
  2837  01B3  00B6               	movwf	(sprintf@c)^080h
  2838                           	; Switch size 1, requested type "space"
  2839                           ; Number of cases is 2, Range of values is 0 to 102
  2840                           ; switch strategies available:
  2841                           ; Name         Instructions Cycles
  2842                           ; simple_byte            7     4 (average)
  2843                           ; jumptable            260     6 (fixed)
  2844                           ; rangetable           107     6 (fixed)
  2845                           ; spacedrange          212     9 (fixed)
  2846                           ; locatedrange         103     3 (fixed)
  2847                           ;	Chosen strategy is simple_byte
  2848                           
  2849                           	opt asmopt_off
  2850  01B4  3A00               	xorlw	0^0	; case 0
  2851  01B5  1903               	skipnz
  2852  01B6  2FFA               	goto	l9063
  2853  01B7  3A66               	xorlw	102^0	; case 102
  2854  01B8  1903               	skipnz
  2855  01B9  29A1               	goto	l4022
  2856  01BA  2FE3               	goto	l9061
  2857                           	opt asmopt_on
  2858                           
  2859                           	line	825
  2860                           	
  2861  01BB                     l4023:	
  2862                           	line	828
  2863                           	
  2864  01BB                     l8907:	
  2865  01BB  3000               	movlw	low(0700h)
  2866  01BC  0525               	andwf	(sprintf@flag)^080h,w
  2867  01BD  1283               	bcf	status, 5	;RP0=0, select bank0
  2868  01BE  1303               	bcf	status, 6	;RP1=0, select bank0
  2869  01BF  00E6               	movwf	(??_sprintf+0)+0
  2870  01C0  3007               	movlw	high(0700h)
  2871  01C1  1683               	bsf	status, 5	;RP0=1, select bank1
  2872  01C2  1303               	bcf	status, 6	;RP1=0, select bank1
  2873  01C3  0526               	andwf	(sprintf@flag+1)^080h,w
  2874  01C4  1283               	bcf	status, 5	;RP0=0, select bank0
  2875  01C5  1303               	bcf	status, 6	;RP1=0, select bank0
  2876  01C6  00E7               	movwf	1+(??_sprintf+0)+0
  2877  01C7  0867               	movf	1+(??_sprintf+0)+0,w
  2878  01C8  0466               	iorwf	0+(??_sprintf+0)+0,w
  2879  01C9  1903               	skipnz
  2880  01CA  29CC               	goto	u4691
  2881  01CB  29CD               	goto	u4690
  2882  01CC                     u4691:
  2883  01CC  2F58               	goto	l9043
  2884  01CD                     u4690:
  2885                           	line	830
  2886                           	
  2887  01CD                     l8909:	
  2888  01CD  1683               	bsf	status, 5	;RP0=1, select bank1
  2889  01CE  1303               	bcf	status, 6	;RP1=0, select bank1
  2890  01CF  1E26               	btfss	(sprintf@flag+1)^080h,(12)&7
  2891  01D0  29D2               	goto	u4701
  2892  01D1  29D3               	goto	u4700
  2893  01D2                     u4701:
  2894  01D2  29D8               	goto	l8913
  2895  01D3                     u4700:
  2896                           	line	832
  2897                           	
  2898  01D3                     l8911:	
  2899  01D3  3006               	movlw	low(06h)
  2900  01D4  00B1               	movwf	(sprintf@prec)^080h
  2901  01D5  3000               	movlw	high(06h)
  2902  01D6  00B2               	movwf	((sprintf@prec)^080h)+1
  2903  01D7  29D8               	goto	l8913
  2904                           	
  2905  01D8                     l4026:	
  2906                           	line	833
  2907                           	
  2908  01D8                     l8913:	
  2909  01D8  0824               	movf	(sprintf@ap)^080h,w
  2910  01D9  0084               	movwf	fsr0
  2911  01DA  1383               	bcf	status, 7	;select IRP bank0
  2912  01DB  0800               	movf	indf,w
  2913  01DC  00B3               	movwf	(sprintf@fval)^080h
  2914  01DD  0A84               	incf	fsr0,f
  2915  01DE  0800               	movf	indf,w
  2916  01DF  00B4               	movwf	(sprintf@fval+1)^080h
  2917  01E0  0A84               	incf	fsr0,f
  2918  01E1  0800               	movf	indf,w
  2919  01E2  00B5               	movwf	(sprintf@fval+2)^080h
  2920                           	
  2921  01E3                     l8915:	
  2922  01E3  3003               	movlw	(03h)
  2923  01E4  1283               	bcf	status, 5	;RP0=0, select bank0
  2924  01E5  1303               	bcf	status, 6	;RP1=0, select bank0
  2925  01E6  00E6               	movwf	(??_sprintf+0)+0
  2926  01E7  0866               	movf	(??_sprintf+0)+0,w
  2927  01E8  1683               	bsf	status, 5	;RP0=1, select bank1
  2928  01E9  1303               	bcf	status, 6	;RP1=0, select bank1
  2929  01EA  07A4               	addwf	(sprintf@ap)^080h,f
  2930                           	line	834
  2931                           	
  2932  01EB                     l8917:	
  2933  01EB  0833               	movf	(sprintf@fval)^080h,w
  2934  01EC  00F0               	movwf	(?___ftge)
  2935  01ED  0834               	movf	(sprintf@fval+1)^080h,w
  2936  01EE  00F1               	movwf	(?___ftge+1)
  2937  01EF  0835               	movf	(sprintf@fval+2)^080h,w
  2938  01F0  00F2               	movwf	(?___ftge+2)
  2939  01F1  3000               	movlw	0x0
  2940  01F2  00F3               	movwf	0+(?___ftge)+03h
  2941  01F3  3000               	movlw	0x0
  2942  01F4  00F4               	movwf	1+(?___ftge)+03h
  2943  01F5  3000               	movlw	0x0
  2944  01F6  00F5               	movwf	2+(?___ftge)+03h
  2945  01F7  160A  118A  22F5   	fcall	___ftge
              120A  118A         
  2946  01FC  1803               	btfsc	status,0
  2947  01FD  29FF               	goto	u4711
  2948  01FE  2A00               	goto	u4710
  2949  01FF                     u4711:
  2950  01FF  2A1A               	goto	l8923
  2951  0200                     u4710:
  2952                           	line	835
  2953                           	
  2954  0200                     l8919:	
  2955  0200  1683               	bsf	status, 5	;RP0=1, select bank1
  2956  0201  1303               	bcf	status, 6	;RP1=0, select bank1
  2957  0202  0833               	movf	(sprintf@fval)^080h,w
  2958  0203  00F0               	movwf	(?___ftneg)
  2959  0204  0834               	movf	(sprintf@fval+1)^080h,w
  2960  0205  00F1               	movwf	(?___ftneg+1)
  2961  0206  0835               	movf	(sprintf@fval+2)^080h,w
  2962  0207  00F2               	movwf	(?___ftneg+2)
  2963  0208  160A  158A  27F4   	fcall	___ftneg
              120A  118A         
  2964  020D  0870               	movf	(0+(?___ftneg)),w
  2965  020E  1683               	bsf	status, 5	;RP0=1, select bank1
  2966  020F  1303               	bcf	status, 6	;RP1=0, select bank1
  2967  0210  00B3               	movwf	(sprintf@fval)^080h
  2968  0211  0871               	movf	(1+(?___ftneg)),w
  2969  0212  00B4               	movwf	(sprintf@fval+1)^080h
  2970  0213  0872               	movf	(2+(?___ftneg)),w
  2971  0214  00B5               	movwf	(sprintf@fval+2)^080h
  2972                           	line	836
  2973                           	
  2974  0215                     l8921:	
  2975  0215  3003               	movlw	low(03h)
  2976  0216  04A5               	iorwf	(sprintf@flag)^080h,f
  2977  0217  3000               	movlw	high(03h)
  2978  0218  04A6               	iorwf	(sprintf@flag+1)^080h,f
  2979  0219  2A1A               	goto	l8923
  2980                           	line	837
  2981                           	
  2982  021A                     l4027:	
  2983                           	line	838
  2984                           	
  2985  021A                     l8923:	
  2986  021A  1683               	bsf	status, 5	;RP0=1, select bank1
  2987  021B  1303               	bcf	status, 6	;RP1=0, select bank1
  2988  021C  01AE               	clrf	(sprintf@exp)^080h
  2989  021D  01AF               	clrf	(sprintf@exp+1)^080h
  2990                           	line	839
  2991                           	
  2992  021E                     l8925:	
  2993  021E  0835               	movf	(sprintf@fval+2)^080h,w
  2994  021F  0434               	iorwf	(sprintf@fval+1)^080h,w
  2995  0220  0433               	iorwf	(sprintf@fval)^080h,w
  2996  0221  1903               	skipnz
  2997  0222  2A24               	goto	u4721
  2998  0223  2A25               	goto	u4720
  2999  0224                     u4721:
  3000  0224  2B23               	goto	l8951
  3001  0225                     u4720:
  3002                           	line	840
  3003                           	
  3004  0225                     l8927:	
  3005  0225  30B3               	movlw	low(sprintf@fval)
  3006  0226  0084               	movwf	fsr0
  3007  0227  1383               	bcf	status, 7	;select IRP bank1
  3008  0228  0800               	movf	indf,w
  3009  0229  1283               	bcf	status, 5	;RP0=0, select bank0
  3010  022A  1303               	bcf	status, 6	;RP1=0, select bank0
  3011  022B  00E6               	movwf	(??_sprintf+0)+0+0
  3012  022C  0A84               	incf	fsr0,f
  3013  022D  0800               	movf	indf,w
  3014  022E  00E7               	movwf	(??_sprintf+0)+0+1
  3015  022F  0A84               	incf	fsr0,f
  3016  0230  0800               	movf	indf,w
  3017  0231  00E8               	movwf	(??_sprintf+0)+0+2
  3018  0232  0A84               	incf	fsr0,f
  3019  0233  0800               	movf	indf,w
  3020  0234  00E9               	movwf	(??_sprintf+0)+0+3
  3021  0235  300F               	movlw	0Fh
  3022  0236                     u4735:
  3023  0236  1003               	clrc
  3024  0237  0CE9               	rrf	(??_sprintf+0)+3,f
  3025  0238  0CE8               	rrf	(??_sprintf+0)+2,f
  3026  0239  0CE7               	rrf	(??_sprintf+0)+1,f
  3027  023A  0CE6               	rrf	(??_sprintf+0)+0,f
  3028  023B                     u4730:
  3029  023B  3EFF               	addlw	-1
  3030  023C  1D03               	skipz
  3031  023D  2A36               	goto	u4735
  3032  023E  30FF               	movlw	low(0FFh)
  3033  023F  0566               	andwf	0+(??_sprintf+0)+0,w
  3034  0240  00EA               	movwf	(??_sprintf+4)+0
  3035  0241  3000               	movlw	high(0FFh)
  3036  0242  0567               	andwf	1+(??_sprintf+0)+0,w
  3037  0243  00EB               	movwf	1+(??_sprintf+4)+0
  3038  0244  086A               	movf	0+(??_sprintf+4)+0,w
  3039  0245  3E82               	addlw	low(-126)
  3040  0246  1683               	bsf	status, 5	;RP0=1, select bank1
  3041  0247  1303               	bcf	status, 6	;RP1=0, select bank1
  3042  0248  00AE               	movwf	(sprintf@exp)^080h
  3043  0249  1283               	bcf	status, 5	;RP0=0, select bank0
  3044  024A  1303               	bcf	status, 6	;RP1=0, select bank0
  3045  024B  086B               	movf	1+(??_sprintf+4)+0,w
  3046  024C  1803               	skipnc
  3047  024D  3E01               	addlw	1
  3048  024E  3EFF               	addlw	high(-126)
  3049  024F  1683               	bsf	status, 5	;RP0=1, select bank1
  3050  0250  1303               	bcf	status, 6	;RP1=0, select bank1
  3051  0251  00AF               	movwf	1+(sprintf@exp)^080h
  3052                           	line	841
  3053                           	
  3054  0252                     l8929:	
  3055  0252  30FF               	movlw	low(-1)
  3056  0253  07AE               	addwf	(sprintf@exp)^080h,f
  3057  0254  1803               	skipnc
  3058  0255  0AAF               	incf	(sprintf@exp+1)^080h,f
  3059  0256  30FF               	movlw	high(-1)
  3060  0257  07AF               	addwf	(sprintf@exp+1)^080h,f
  3061                           	line	842
  3062                           	
  3063  0258                     l8931:	
  3064  0258  3003               	movlw	low(03h)
  3065  0259  00F0               	movwf	(?___wmul)
  3066  025A  3000               	movlw	high(03h)
  3067  025B  00F1               	movwf	((?___wmul))+1
  3068  025C  082F               	movf	(sprintf@exp+1)^080h,w
  3069  025D  01F3               	clrf	1+(?___wmul)+02h
  3070  025E  07F3               	addwf	1+(?___wmul)+02h
  3071  025F  082E               	movf	(sprintf@exp)^080h,w
  3072  0260  01F2               	clrf	0+(?___wmul)+02h
  3073  0261  07F2               	addwf	0+(?___wmul)+02h
  3074                           
  3075  0262  160A  118A  214D   	fcall	___wmul
              120A  118A         
  3076  0267  0871               	movf	(1+(?___wmul)),w
  3077  0268  1683               	bsf	status, 5	;RP0=1, select bank1
  3078  0269  1303               	bcf	status, 6	;RP1=0, select bank1
  3079  026A  01AF               	clrf	(sprintf@exp+1)^080h
  3080  026B  07AF               	addwf	(sprintf@exp+1)^080h
  3081  026C  0870               	movf	(0+(?___wmul)),w
  3082  026D  01AE               	clrf	(sprintf@exp)^080h
  3083  026E  07AE               	addwf	(sprintf@exp)^080h
  3084                           
  3085                           	line	843
  3086                           	
  3087  026F                     l8933:	
  3088  026F  300A               	movlw	low(0Ah)
  3089  0270  00F7               	movwf	(?___awdiv)
  3090  0271  3000               	movlw	high(0Ah)
  3091  0272  00F8               	movwf	((?___awdiv))+1
  3092  0273  082F               	movf	(sprintf@exp+1)^080h,w
  3093  0274  01FA               	clrf	1+(?___awdiv)+02h
  3094  0275  07FA               	addwf	1+(?___awdiv)+02h
  3095  0276  082E               	movf	(sprintf@exp)^080h,w
  3096  0277  01F9               	clrf	0+(?___awdiv)+02h
  3097  0278  07F9               	addwf	0+(?___awdiv)+02h
  3098                           
  3099  0279  160A  118A  23CF   	fcall	___awdiv
              120A  118A         
  3100  027E  0878               	movf	(1+(?___awdiv)),w
  3101  027F  1683               	bsf	status, 5	;RP0=1, select bank1
  3102  0280  1303               	bcf	status, 6	;RP1=0, select bank1
  3103  0281  01AF               	clrf	(sprintf@exp+1)^080h
  3104  0282  07AF               	addwf	(sprintf@exp+1)^080h
  3105  0283  0877               	movf	(0+(?___awdiv)),w
  3106  0284  01AE               	clrf	(sprintf@exp)^080h
  3107  0285  07AE               	addwf	(sprintf@exp)^080h
  3108                           
  3109                           	line	844
  3110                           	
  3111  0286                     l8935:	
  3112  0286  1FAF               	btfss	(sprintf@exp+1)^080h,7
  3113  0287  2A89               	goto	u4741
  3114  0288  2A8A               	goto	u4740
  3115  0289                     u4741:
  3116  0289  2A91               	goto	l8939
  3117  028A                     u4740:
  3118                           	line	845
  3119                           	
  3120  028A                     l8937:	
  3121  028A  30FF               	movlw	low(-1)
  3122  028B  07AE               	addwf	(sprintf@exp)^080h,f
  3123  028C  1803               	skipnc
  3124  028D  0AAF               	incf	(sprintf@exp+1)^080h,f
  3125  028E  30FF               	movlw	high(-1)
  3126  028F  07AF               	addwf	(sprintf@exp+1)^080h,f
  3127  0290  2A91               	goto	l8939
  3128                           	
  3129  0291                     l4029:	
  3130                           	line	849
  3131                           	
  3132  0291                     l8939:	
  3133  0291  032E               	decf	(sprintf@exp)^080h,w
  3134  0292  3AFF               	xorlw	0ffh
  3135  0293  120A  158A  2541   	fcall	_scale
              120A  118A         
  3136  0298  1283               	bcf	status, 5	;RP0=0, select bank0
  3137  0299  1303               	bcf	status, 6	;RP1=0, select bank0
  3138  029A  0845               	movf	(0+(?_scale)),w
  3139  029B  1683               	bsf	status, 5	;RP0=1, select bank1
  3140  029C  1303               	bcf	status, 6	;RP1=0, select bank1
  3141  029D  00A7               	movwf	(sprintf@integ)^080h
  3142  029E  1283               	bcf	status, 5	;RP0=0, select bank0
  3143  029F  1303               	bcf	status, 6	;RP1=0, select bank0
  3144  02A0  0846               	movf	(1+(?_scale)),w
  3145  02A1  1683               	bsf	status, 5	;RP0=1, select bank1
  3146  02A2  1303               	bcf	status, 6	;RP1=0, select bank1
  3147  02A3  00A8               	movwf	(sprintf@integ+1)^080h
  3148  02A4  1283               	bcf	status, 5	;RP0=0, select bank0
  3149  02A5  1303               	bcf	status, 6	;RP1=0, select bank0
  3150  02A6  0847               	movf	(2+(?_scale)),w
  3151  02A7  1683               	bsf	status, 5	;RP0=1, select bank1
  3152  02A8  1303               	bcf	status, 6	;RP1=0, select bank1
  3153  02A9  00A9               	movwf	(sprintf@integ+2)^080h
  3154                           	line	850
  3155                           	
  3156  02AA                     l8941:	
  3157  02AA  0833               	movf	(sprintf@fval)^080h,w
  3158  02AB  1283               	bcf	status, 5	;RP0=0, select bank0
  3159  02AC  1303               	bcf	status, 6	;RP1=0, select bank0
  3160  02AD  00B5               	movwf	(?___ftmul)
  3161  02AE  1683               	bsf	status, 5	;RP0=1, select bank1
  3162  02AF  1303               	bcf	status, 6	;RP1=0, select bank1
  3163  02B0  0834               	movf	(sprintf@fval+1)^080h,w
  3164  02B1  1283               	bcf	status, 5	;RP0=0, select bank0
  3165  02B2  1303               	bcf	status, 6	;RP1=0, select bank0
  3166  02B3  00B6               	movwf	(?___ftmul+1)
  3167  02B4  1683               	bsf	status, 5	;RP0=1, select bank1
  3168  02B5  1303               	bcf	status, 6	;RP1=0, select bank1
  3169  02B6  0835               	movf	(sprintf@fval+2)^080h,w
  3170  02B7  1283               	bcf	status, 5	;RP0=0, select bank0
  3171  02B8  1303               	bcf	status, 6	;RP1=0, select bank0
  3172  02B9  00B7               	movwf	(?___ftmul+2)
  3173  02BA  1683               	bsf	status, 5	;RP0=1, select bank1
  3174  02BB  1303               	bcf	status, 6	;RP1=0, select bank1
  3175  02BC  0827               	movf	(sprintf@integ)^080h,w
  3176  02BD  1283               	bcf	status, 5	;RP0=0, select bank0
  3177  02BE  1303               	bcf	status, 6	;RP1=0, select bank0
  3178  02BF  00B8               	movwf	0+(?___ftmul)+03h
  3179  02C0  1683               	bsf	status, 5	;RP0=1, select bank1
  3180  02C1  1303               	bcf	status, 6	;RP1=0, select bank1
  3181  02C2  0828               	movf	(sprintf@integ+1)^080h,w
  3182  02C3  1283               	bcf	status, 5	;RP0=0, select bank0
  3183  02C4  1303               	bcf	status, 6	;RP1=0, select bank0
  3184  02C5  00B9               	movwf	1+(?___ftmul)+03h
  3185  02C6  1683               	bsf	status, 5	;RP0=1, select bank1
  3186  02C7  1303               	bcf	status, 6	;RP1=0, select bank1
  3187  02C8  0829               	movf	(sprintf@integ+2)^080h,w
  3188  02C9  1283               	bcf	status, 5	;RP0=0, select bank0
  3189  02CA  1303               	bcf	status, 6	;RP1=0, select bank0
  3190  02CB  00BA               	movwf	2+(?___ftmul)+03h
  3191  02CC  120A  118A  201E   	fcall	___ftmul
              120A  118A         
  3192  02D1  1283               	bcf	status, 5	;RP0=0, select bank0
  3193  02D2  1303               	bcf	status, 6	;RP1=0, select bank0
  3194  02D3  0835               	movf	(0+(?___ftmul)),w
  3195  02D4  1683               	bsf	status, 5	;RP0=1, select bank1
  3196  02D5  1303               	bcf	status, 6	;RP1=0, select bank1
  3197  02D6  00A7               	movwf	(sprintf@integ)^080h
  3198  02D7  1283               	bcf	status, 5	;RP0=0, select bank0
  3199  02D8  1303               	bcf	status, 6	;RP1=0, select bank0
  3200  02D9  0836               	movf	(1+(?___ftmul)),w
  3201  02DA  1683               	bsf	status, 5	;RP0=1, select bank1
  3202  02DB  1303               	bcf	status, 6	;RP1=0, select bank1
  3203  02DC  00A8               	movwf	(sprintf@integ+1)^080h
  3204  02DD  1283               	bcf	status, 5	;RP0=0, select bank0
  3205  02DE  1303               	bcf	status, 6	;RP1=0, select bank0
  3206  02DF  0837               	movf	(2+(?___ftmul)),w
  3207  02E0  1683               	bsf	status, 5	;RP0=1, select bank1
  3208  02E1  1303               	bcf	status, 6	;RP1=0, select bank1
  3209  02E2  00A9               	movwf	(sprintf@integ+2)^080h
  3210                           	line	851
  3211                           	
  3212  02E3                     l8943:	
  3213  02E3  0827               	movf	(sprintf@integ)^080h,w
  3214  02E4  00F0               	movwf	(?___ftge)
  3215  02E5  0828               	movf	(sprintf@integ+1)^080h,w
  3216  02E6  00F1               	movwf	(?___ftge+1)
  3217  02E7  0829               	movf	(sprintf@integ+2)^080h,w
  3218  02E8  00F2               	movwf	(?___ftge+2)
  3219  02E9  3000               	movlw	0x0
  3220  02EA  00F3               	movwf	0+(?___ftge)+03h
  3221  02EB  3080               	movlw	0x80
  3222  02EC  00F4               	movwf	1+(?___ftge)+03h
  3223  02ED  303F               	movlw	0x3f
  3224  02EE  00F5               	movwf	2+(?___ftge)+03h
  3225  02EF  160A  118A  22F5   	fcall	___ftge
              120A  118A         
  3226  02F4  1803               	btfsc	status,0
  3227  02F5  2AF7               	goto	u4751
  3228  02F6  2AF8               	goto	u4750
  3229  02F7                     u4751:
  3230  02F7  2B01               	goto	l8947
  3231  02F8                     u4750:
  3232                           	line	852
  3233                           	
  3234  02F8                     l8945:	
  3235  02F8  30FF               	movlw	low(-1)
  3236  02F9  1683               	bsf	status, 5	;RP0=1, select bank1
  3237  02FA  1303               	bcf	status, 6	;RP1=0, select bank1
  3238  02FB  07AE               	addwf	(sprintf@exp)^080h,f
  3239  02FC  1803               	skipnc
  3240  02FD  0AAF               	incf	(sprintf@exp+1)^080h,f
  3241  02FE  30FF               	movlw	high(-1)
  3242  02FF  07AF               	addwf	(sprintf@exp+1)^080h,f
  3243  0300  2B23               	goto	l8951
  3244                           	line	853
  3245                           	
  3246  0301                     l4030:	
  3247                           	
  3248  0301                     l8947:	
  3249  0301  1683               	bsf	status, 5	;RP0=1, select bank1
  3250  0302  1303               	bcf	status, 6	;RP1=0, select bank1
  3251  0303  0827               	movf	(sprintf@integ)^080h,w
  3252  0304  00F0               	movwf	(?___ftge)
  3253  0305  0828               	movf	(sprintf@integ+1)^080h,w
  3254  0306  00F1               	movwf	(?___ftge+1)
  3255  0307  0829               	movf	(sprintf@integ+2)^080h,w
  3256  0308  00F2               	movwf	(?___ftge+2)
  3257  0309  3000               	movlw	0x0
  3258  030A  00F3               	movwf	0+(?___ftge)+03h
  3259  030B  3020               	movlw	0x20
  3260  030C  00F4               	movwf	1+(?___ftge)+03h
  3261  030D  3041               	movlw	0x41
  3262  030E  00F5               	movwf	2+(?___ftge)+03h
  3263  030F  160A  118A  22F5   	fcall	___ftge
              120A  118A         
  3264  0314  1C03               	btfss	status,0
  3265  0315  2B17               	goto	u4761
  3266  0316  2B18               	goto	u4760
  3267  0317                     u4761:
  3268  0317  2B23               	goto	l8951
  3269  0318                     u4760:
  3270                           	line	854
  3271                           	
  3272  0318                     l8949:	
  3273  0318  3001               	movlw	low(01h)
  3274  0319  1683               	bsf	status, 5	;RP0=1, select bank1
  3275  031A  1303               	bcf	status, 6	;RP1=0, select bank1
  3276  031B  07AE               	addwf	(sprintf@exp)^080h,f
  3277  031C  1803               	skipnc
  3278  031D  0AAF               	incf	(sprintf@exp+1)^080h,f
  3279  031E  3000               	movlw	high(01h)
  3280  031F  07AF               	addwf	(sprintf@exp+1)^080h,f
  3281  0320  2B23               	goto	l8951
  3282                           	
  3283  0321                     l4032:	
  3284  0321  2B23               	goto	l8951
  3285                           	line	855
  3286                           	
  3287  0322                     l4031:	
  3288  0322  2B23               	goto	l8951
  3289                           	
  3290  0323                     l4028:	
  3291                           	line	1115
  3292                           	
  3293  0323                     l8951:	
  3294  0323  1683               	bsf	status, 5	;RP0=1, select bank1
  3295  0324  1303               	bcf	status, 6	;RP1=0, select bank1
  3296  0325  0832               	movf	(sprintf@prec+1)^080h,w
  3297  0326  3A80               	xorlw	80h
  3298  0327  00FF               	movwf	btemp+1
  3299  0328  3080               	movlw	(high(0Dh))^80h
  3300  0329  027F               	subwf	btemp+1,w
  3301  032A  1D03               	skipz
  3302  032B  2B2E               	goto	u4775
  3303  032C  300D               	movlw	low(0Dh)
  3304  032D  0231               	subwf	(sprintf@prec)^080h,w
  3305  032E                     u4775:
  3306                           
  3307  032E  1803               	skipnc
  3308  032F  2B31               	goto	u4771
  3309  0330  2B32               	goto	u4770
  3310  0331                     u4771:
  3311  0331  2B6C               	goto	l8955
  3312  0332                     u4770:
  3313                           	line	1116
  3314                           	
  3315  0332                     l8953:	
  3316  0332  1683               	bsf	status, 5	;RP0=1, select bank1
  3317  0333  1303               	bcf	status, 6	;RP1=0, select bank1
  3318  0334  0831               	movf	(sprintf@prec)^080h,w
  3319  0335  120A  158A  2109   	fcall	_fround
              120A  118A         
  3320  033A  1283               	bcf	status, 5	;RP0=0, select bank0
  3321  033B  1303               	bcf	status, 6	;RP1=0, select bank0
  3322  033C  0852               	movf	(0+(?_fround)),w
  3323  033D  00C5               	movwf	(?___ftadd)
  3324  033E  0853               	movf	(1+(?_fround)),w
  3325  033F  00C6               	movwf	(?___ftadd+1)
  3326  0340  0854               	movf	(2+(?_fround)),w
  3327  0341  00C7               	movwf	(?___ftadd+2)
  3328  0342  1683               	bsf	status, 5	;RP0=1, select bank1
  3329  0343  1303               	bcf	status, 6	;RP1=0, select bank1
  3330  0344  0833               	movf	(sprintf@fval)^080h,w
  3331  0345  1283               	bcf	status, 5	;RP0=0, select bank0
  3332  0346  1303               	bcf	status, 6	;RP1=0, select bank0
  3333  0347  00C8               	movwf	0+(?___ftadd)+03h
  3334  0348  1683               	bsf	status, 5	;RP0=1, select bank1
  3335  0349  1303               	bcf	status, 6	;RP1=0, select bank1
  3336  034A  0834               	movf	(sprintf@fval+1)^080h,w
  3337  034B  1283               	bcf	status, 5	;RP0=0, select bank0
  3338  034C  1303               	bcf	status, 6	;RP1=0, select bank0
  3339  034D  00C9               	movwf	1+(?___ftadd)+03h
  3340  034E  1683               	bsf	status, 5	;RP0=1, select bank1
  3341  034F  1303               	bcf	status, 6	;RP1=0, select bank1
  3342  0350  0835               	movf	(sprintf@fval+2)^080h,w
  3343  0351  1283               	bcf	status, 5	;RP0=0, select bank0
  3344  0352  1303               	bcf	status, 6	;RP1=0, select bank0
  3345  0353  00CA               	movwf	2+(?___ftadd)+03h
  3346  0354  160A  118A  2566   	fcall	___ftadd
              120A  118A         
  3347  0359  1283               	bcf	status, 5	;RP0=0, select bank0
  3348  035A  1303               	bcf	status, 6	;RP1=0, select bank0
  3349  035B  0845               	movf	(0+(?___ftadd)),w
  3350  035C  1683               	bsf	status, 5	;RP0=1, select bank1
  3351  035D  1303               	bcf	status, 6	;RP1=0, select bank1
  3352  035E  00B3               	movwf	(sprintf@fval)^080h
  3353  035F  1283               	bcf	status, 5	;RP0=0, select bank0
  3354  0360  1303               	bcf	status, 6	;RP1=0, select bank0
  3355  0361  0846               	movf	(1+(?___ftadd)),w
  3356  0362  1683               	bsf	status, 5	;RP0=1, select bank1
  3357  0363  1303               	bcf	status, 6	;RP1=0, select bank1
  3358  0364  00B4               	movwf	(sprintf@fval+1)^080h
  3359  0365  1283               	bcf	status, 5	;RP0=0, select bank0
  3360  0366  1303               	bcf	status, 6	;RP1=0, select bank0
  3361  0367  0847               	movf	(2+(?___ftadd)),w
  3362  0368  1683               	bsf	status, 5	;RP0=1, select bank1
  3363  0369  1303               	bcf	status, 6	;RP1=0, select bank1
  3364  036A  00B5               	movwf	(sprintf@fval+2)^080h
  3365  036B  2B6C               	goto	l8955
  3366                           	
  3367  036C                     l4033:	
  3368                           	line	1119
  3369                           	
  3370  036C                     l8955:	
  3371  036C  1683               	bsf	status, 5	;RP0=1, select bank1
  3372  036D  1303               	bcf	status, 6	;RP1=0, select bank1
  3373  036E  082F               	movf	(sprintf@exp+1)^080h,w
  3374  036F  3A80               	xorlw	80h
  3375  0370  00FF               	movwf	btemp+1
  3376  0371  3080               	movlw	(high(0Ah))^80h
  3377  0372  027F               	subwf	btemp+1,w
  3378  0373  1D03               	skipz
  3379  0374  2B77               	goto	u4785
  3380  0375  300A               	movlw	low(0Ah)
  3381  0376  022E               	subwf	(sprintf@exp)^080h,w
  3382  0377                     u4785:
  3383                           
  3384  0377  1803               	skipnc
  3385  0378  2B7A               	goto	u4781
  3386  0379  2B7B               	goto	u4780
  3387  037A                     u4781:
  3388  037A  2BB3               	goto	l8963
  3389  037B                     u4780:
  3390                           	
  3391  037B                     l8957:	
  3392  037B  1683               	bsf	status, 5	;RP0=1, select bank1
  3393  037C  1303               	bcf	status, 6	;RP1=0, select bank1
  3394  037D  0835               	movf	(sprintf@fval+2)^080h,w
  3395  037E  0434               	iorwf	(sprintf@fval+1)^080h,w
  3396  037F  0433               	iorwf	(sprintf@fval)^080h,w
  3397  0380  1903               	skipnz
  3398  0381  2B83               	goto	u4791
  3399  0382  2B84               	goto	u4790
  3400  0383                     u4791:
  3401  0383  2C3C               	goto	l8979
  3402  0384                     u4790:
  3403                           	
  3404  0384                     l8959:	
  3405  0384  0833               	movf	(sprintf@fval)^080h,w
  3406  0385  1283               	bcf	status, 5	;RP0=0, select bank0
  3407  0386  1303               	bcf	status, 6	;RP1=0, select bank0
  3408  0387  00A7               	movwf	(?___fttol)
  3409  0388  1683               	bsf	status, 5	;RP0=1, select bank1
  3410  0389  1303               	bcf	status, 6	;RP1=0, select bank1
  3411  038A  0834               	movf	(sprintf@fval+1)^080h,w
  3412  038B  1283               	bcf	status, 5	;RP0=0, select bank0
  3413  038C  1303               	bcf	status, 6	;RP1=0, select bank0
  3414  038D  00A8               	movwf	(?___fttol+1)
  3415  038E  1683               	bsf	status, 5	;RP0=1, select bank1
  3416  038F  1303               	bcf	status, 6	;RP1=0, select bank1
  3417  0390  0835               	movf	(sprintf@fval+2)^080h,w
  3418  0391  1283               	bcf	status, 5	;RP0=0, select bank0
  3419  0392  1303               	bcf	status, 6	;RP1=0, select bank0
  3420  0393  00A9               	movwf	(?___fttol+2)
  3421  0394  160A  118A  24C0   	fcall	___fttol
              120A  118A         
  3422  0399  1283               	bcf	status, 5	;RP0=0, select bank0
  3423  039A  1303               	bcf	status, 6	;RP1=0, select bank0
  3424  039B  082A               	movf	(3+(?___fttol)),w
  3425  039C  0429               	iorwf	(2+(?___fttol)),w
  3426  039D  0428               	iorwf	(1+(?___fttol)),w
  3427  039E  0427               	iorwf	(0+(?___fttol)),w
  3428  039F  1D03               	skipz
  3429  03A0  2BA2               	goto	u4801
  3430  03A1  2BA3               	goto	u4800
  3431  03A2                     u4801:
  3432  03A2  2C3C               	goto	l8979
  3433  03A3                     u4800:
  3434                           	
  3435  03A3                     l8961:	
  3436  03A3  1683               	bsf	status, 5	;RP0=1, select bank1
  3437  03A4  1303               	bcf	status, 6	;RP1=0, select bank1
  3438  03A5  082F               	movf	(sprintf@exp+1)^080h,w
  3439  03A6  3A80               	xorlw	80h
  3440  03A7  00FF               	movwf	btemp+1
  3441  03A8  3080               	movlw	(high(02h))^80h
  3442  03A9  027F               	subwf	btemp+1,w
  3443  03AA  1D03               	skipz
  3444  03AB  2BAE               	goto	u4815
  3445  03AC  3002               	movlw	low(02h)
  3446  03AD  022E               	subwf	(sprintf@exp)^080h,w
  3447  03AE                     u4815:
  3448                           
  3449  03AE  1C03               	skipc
  3450  03AF  2BB1               	goto	u4811
  3451  03B0  2BB2               	goto	u4810
  3452  03B1                     u4811:
  3453  03B1  2C3C               	goto	l8979
  3454  03B2                     u4810:
  3455  03B2  2BB3               	goto	l8963
  3456                           	
  3457  03B3                     l4036:	
  3458                           	line	1123
  3459                           	
  3460  03B3                     l8963:	
  3461  03B3  1683               	bsf	status, 5	;RP0=1, select bank1
  3462  03B4  1303               	bcf	status, 6	;RP1=0, select bank1
  3463  03B5  0827               	movf	(sprintf@integ)^080h,w
  3464  03B6  00F0               	movwf	(?___ftge)
  3465  03B7  0828               	movf	(sprintf@integ+1)^080h,w
  3466  03B8  00F1               	movwf	(?___ftge+1)
  3467  03B9  0829               	movf	(sprintf@integ+2)^080h,w
  3468  03BA  00F2               	movwf	(?___ftge+2)
  3469  03BB  3070               	movlw	0x70
  3470  03BC  00F3               	movwf	0+(?___ftge)+03h
  3471  03BD  3089               	movlw	0x89
  3472  03BE  00F4               	movwf	1+(?___ftge)+03h
  3473  03BF  3040               	movlw	0x40
  3474  03C0  00F5               	movwf	2+(?___ftge)+03h
  3475  03C1  160A  118A  22F5   	fcall	___ftge
              120A  118A         
  3476  03C6  1803               	btfsc	status,0
  3477  03C7  2BC9               	goto	u4821
  3478  03C8  2BCA               	goto	u4820
  3479  03C9                     u4821:
  3480  03C9  2BD3               	goto	l8967
  3481  03CA                     u4820:
  3482                           	line	1124
  3483                           	
  3484  03CA                     l8965:	
  3485  03CA  30F7               	movlw	low(-9)
  3486  03CB  1683               	bsf	status, 5	;RP0=1, select bank1
  3487  03CC  1303               	bcf	status, 6	;RP1=0, select bank1
  3488  03CD  07AE               	addwf	(sprintf@exp)^080h,f
  3489  03CE  1803               	skipnc
  3490  03CF  0AAF               	incf	(sprintf@exp+1)^080h,f
  3491  03D0  30FF               	movlw	high(-9)
  3492  03D1  07AF               	addwf	(sprintf@exp+1)^080h,f
  3493                           	line	1125
  3494  03D2  2BDC               	goto	l8969
  3495                           	
  3496  03D3                     l4037:	
  3497                           	line	1126
  3498                           	
  3499  03D3                     l8967:	
  3500  03D3  30F8               	movlw	low(-8)
  3501  03D4  1683               	bsf	status, 5	;RP0=1, select bank1
  3502  03D5  1303               	bcf	status, 6	;RP1=0, select bank1
  3503  03D6  07AE               	addwf	(sprintf@exp)^080h,f
  3504  03D7  1803               	skipnc
  3505  03D8  0AAF               	incf	(sprintf@exp+1)^080h,f
  3506  03D9  30FF               	movlw	high(-8)
  3507  03DA  07AF               	addwf	(sprintf@exp+1)^080h,f
  3508  03DB  2BDC               	goto	l8969
  3509                           	line	1127
  3510                           	
  3511  03DC                     l4038:	
  3512                           	line	1128
  3513                           	
  3514  03DC                     l8969:	
  3515  03DC  082E               	movf	(sprintf@exp)^080h,w
  3516  03DD  120A  158A  2541   	fcall	_scale
              120A  118A         
  3517  03E2  1283               	bcf	status, 5	;RP0=0, select bank0
  3518  03E3  1303               	bcf	status, 6	;RP1=0, select bank0
  3519  03E4  0845               	movf	(0+(?_scale)),w
  3520  03E5  1683               	bsf	status, 5	;RP0=1, select bank1
  3521  03E6  1303               	bcf	status, 6	;RP1=0, select bank1
  3522  03E7  00A7               	movwf	(sprintf@integ)^080h
  3523  03E8  1283               	bcf	status, 5	;RP0=0, select bank0
  3524  03E9  1303               	bcf	status, 6	;RP1=0, select bank0
  3525  03EA  0846               	movf	(1+(?_scale)),w
  3526  03EB  1683               	bsf	status, 5	;RP0=1, select bank1
  3527  03EC  1303               	bcf	status, 6	;RP1=0, select bank1
  3528  03ED  00A8               	movwf	(sprintf@integ+1)^080h
  3529  03EE  1283               	bcf	status, 5	;RP0=0, select bank0
  3530  03EF  1303               	bcf	status, 6	;RP1=0, select bank0
  3531  03F0  0847               	movf	(2+(?_scale)),w
  3532  03F1  1683               	bsf	status, 5	;RP0=1, select bank1
  3533  03F2  1303               	bcf	status, 6	;RP1=0, select bank1
  3534  03F3  00A9               	movwf	(sprintf@integ+2)^080h
  3535                           	line	1129
  3536  03F4  2C11               	goto	l8973
  3537                           	
  3538  03F5                     l8971:	
  3539  03F5  0833               	movf	(sprintf@fval)^080h,w
  3540  03F6  00F0               	movwf	(?__div_to_l_)
  3541  03F7  0834               	movf	(sprintf@fval+1)^080h,w
  3542  03F8  00F1               	movwf	(?__div_to_l_+1)
  3543  03F9  0835               	movf	(sprintf@fval+2)^080h,w
  3544  03FA  00F2               	movwf	(?__div_to_l_+2)
  3545  03FB  0827               	movf	(sprintf@integ)^080h,w
  3546  03FC  00F3               	movwf	0+(?__div_to_l_)+03h
  3547  03FD  0828               	movf	(sprintf@integ+1)^080h,w
  3548  03FE  00F4               	movwf	1+(?__div_to_l_)+03h
  3549  03FF  0829               	movf	(sprintf@integ+2)^080h,w
  3550  0400  00F5               	movwf	2+(?__div_to_l_)+03h
  3551  0401  160A  118A  26AC   	fcall	__div_to_l_
              120A  118A         
  3552  0406  0873               	movf	(3+(?__div_to_l_)),w
  3553  0407  1683               	bsf	status, 5	;RP0=1, select bank1
  3554  0408  1303               	bcf	status, 6	;RP1=0, select bank1
  3555  0409  00A3               	movwf	(_sprintf$4724+3)^080h
  3556  040A  0872               	movf	(2+(?__div_to_l_)),w
  3557  040B  00A2               	movwf	(_sprintf$4724+2)^080h
  3558  040C  0871               	movf	(1+(?__div_to_l_)),w
  3559  040D  00A1               	movwf	(_sprintf$4724+1)^080h
  3560  040E  0870               	movf	(0+(?__div_to_l_)),w
  3561  040F  00A0               	movwf	(_sprintf$4724)^080h
  3562                           
  3563  0410  2C2D               	goto	l8975
  3564                           	
  3565  0411                     l4040:	
  3566                           	
  3567  0411                     l8973:	
  3568  0411  0833               	movf	(sprintf@fval)^080h,w
  3569  0412  00F0               	movwf	(?__tdiv_to_l_)
  3570  0413  0834               	movf	(sprintf@fval+1)^080h,w
  3571  0414  00F1               	movwf	(?__tdiv_to_l_+1)
  3572  0415  0835               	movf	(sprintf@fval+2)^080h,w
  3573  0416  00F2               	movwf	(?__tdiv_to_l_+2)
  3574  0417  0827               	movf	(sprintf@integ)^080h,w
  3575  0418  00F3               	movwf	0+(?__tdiv_to_l_)+03h
  3576  0419  0828               	movf	(sprintf@integ+1)^080h,w
  3577  041A  00F4               	movwf	1+(?__tdiv_to_l_)+03h
  3578  041B  0829               	movf	(sprintf@integ+2)^080h,w
  3579  041C  00F5               	movwf	2+(?__tdiv_to_l_)+03h
  3580  041D  120A  158A  2027   	fcall	__tdiv_to_l_
              120A  118A         
  3581  0422  0873               	movf	(3+(?__tdiv_to_l_)),w
  3582  0423  1683               	bsf	status, 5	;RP0=1, select bank1
  3583  0424  1303               	bcf	status, 6	;RP1=0, select bank1
  3584  0425  00A3               	movwf	(_sprintf$4724+3)^080h
  3585  0426  0872               	movf	(2+(?__tdiv_to_l_)),w
  3586  0427  00A2               	movwf	(_sprintf$4724+2)^080h
  3587  0428  0871               	movf	(1+(?__tdiv_to_l_)),w
  3588  0429  00A1               	movwf	(_sprintf$4724+1)^080h
  3589  042A  0870               	movf	(0+(?__tdiv_to_l_)),w
  3590  042B  00A0               	movwf	(_sprintf$4724)^080h
  3591                           
  3592  042C  2C2D               	goto	l8975
  3593                           	
  3594  042D                     l4042:	
  3595                           	
  3596  042D                     l8975:	
  3597  042D  0823               	movf	(_sprintf$4724+3)^080h,w
  3598  042E  00AD               	movwf	(sprintf@_val+3)^080h
  3599  042F  0822               	movf	(_sprintf$4724+2)^080h,w
  3600  0430  00AC               	movwf	(sprintf@_val+2)^080h
  3601  0431  0821               	movf	(_sprintf$4724+1)^080h,w
  3602  0432  00AB               	movwf	(sprintf@_val+1)^080h
  3603  0433  0820               	movf	(_sprintf$4724)^080h,w
  3604  0434  00AA               	movwf	(sprintf@_val)^080h
  3605                           
  3606                           	line	1132
  3607                           	
  3608  0435                     l8977:	
  3609  0435  3000               	movlw	0x0
  3610  0436  00B3               	movwf	(sprintf@fval)^080h
  3611  0437  3000               	movlw	0x0
  3612  0438  00B4               	movwf	(sprintf@fval+1)^080h
  3613  0439  3000               	movlw	0x0
  3614  043A  00B5               	movwf	(sprintf@fval+2)^080h
  3615                           	line	1133
  3616  043B  2CAC               	goto	l8983
  3617                           	
  3618  043C                     l4034:	
  3619                           	line	1134
  3620                           	
  3621  043C                     l8979:	
  3622  043C  1683               	bsf	status, 5	;RP0=1, select bank1
  3623  043D  1303               	bcf	status, 6	;RP1=0, select bank1
  3624  043E  0833               	movf	(sprintf@fval)^080h,w
  3625  043F  1283               	bcf	status, 5	;RP0=0, select bank0
  3626  0440  1303               	bcf	status, 6	;RP1=0, select bank0
  3627  0441  00A7               	movwf	(?___fttol)
  3628  0442  1683               	bsf	status, 5	;RP0=1, select bank1
  3629  0443  1303               	bcf	status, 6	;RP1=0, select bank1
  3630  0444  0834               	movf	(sprintf@fval+1)^080h,w
  3631  0445  1283               	bcf	status, 5	;RP0=0, select bank0
  3632  0446  1303               	bcf	status, 6	;RP1=0, select bank0
  3633  0447  00A8               	movwf	(?___fttol+1)
  3634  0448  1683               	bsf	status, 5	;RP0=1, select bank1
  3635  0449  1303               	bcf	status, 6	;RP1=0, select bank1
  3636  044A  0835               	movf	(sprintf@fval+2)^080h,w
  3637  044B  1283               	bcf	status, 5	;RP0=0, select bank0
  3638  044C  1303               	bcf	status, 6	;RP1=0, select bank0
  3639  044D  00A9               	movwf	(?___fttol+2)
  3640  044E  160A  118A  24C0   	fcall	___fttol
              120A  118A         
  3641  0453  1283               	bcf	status, 5	;RP0=0, select bank0
  3642  0454  1303               	bcf	status, 6	;RP1=0, select bank0
  3643  0455  082A               	movf	(3+(?___fttol)),w
  3644  0456  1683               	bsf	status, 5	;RP0=1, select bank1
  3645  0457  1303               	bcf	status, 6	;RP1=0, select bank1
  3646  0458  00AD               	movwf	(sprintf@_val+3)^080h
  3647  0459  1283               	bcf	status, 5	;RP0=0, select bank0
  3648  045A  1303               	bcf	status, 6	;RP1=0, select bank0
  3649  045B  0829               	movf	(2+(?___fttol)),w
  3650  045C  1683               	bsf	status, 5	;RP0=1, select bank1
  3651  045D  1303               	bcf	status, 6	;RP1=0, select bank1
  3652  045E  00AC               	movwf	(sprintf@_val+2)^080h
  3653  045F  1283               	bcf	status, 5	;RP0=0, select bank0
  3654  0460  1303               	bcf	status, 6	;RP1=0, select bank0
  3655  0461  0828               	movf	(1+(?___fttol)),w
  3656  0462  1683               	bsf	status, 5	;RP0=1, select bank1
  3657  0463  1303               	bcf	status, 6	;RP1=0, select bank1
  3658  0464  00AB               	movwf	(sprintf@_val+1)^080h
  3659  0465  1283               	bcf	status, 5	;RP0=0, select bank0
  3660  0466  1303               	bcf	status, 6	;RP1=0, select bank0
  3661  0467  0827               	movf	(0+(?___fttol)),w
  3662  0468  1683               	bsf	status, 5	;RP0=1, select bank1
  3663  0469  1303               	bcf	status, 6	;RP1=0, select bank1
  3664  046A  00AA               	movwf	(sprintf@_val)^080h
  3665                           
  3666                           	line	1135
  3667  046B  082D               	movf	(sprintf@_val+3)^080h,w
  3668  046C  00FB               	movwf	(?___lltoft+3)
  3669  046D  082C               	movf	(sprintf@_val+2)^080h,w
  3670  046E  00FA               	movwf	(?___lltoft+2)
  3671  046F  082B               	movf	(sprintf@_val+1)^080h,w
  3672  0470  00F9               	movwf	(?___lltoft+1)
  3673  0471  082A               	movf	(sprintf@_val)^080h,w
  3674  0472  00F8               	movwf	(?___lltoft)
  3675                           
  3676  0473  160A  118A  21A2   	fcall	___lltoft
              120A  118A         
  3677  0478  0878               	movf	(0+(?___lltoft)),w
  3678  0479  1283               	bcf	status, 5	;RP0=0, select bank0
  3679  047A  1303               	bcf	status, 6	;RP1=0, select bank0
  3680  047B  00D2               	movwf	(?___ftsub)
  3681  047C  0879               	movf	(1+(?___lltoft)),w
  3682  047D  00D3               	movwf	(?___ftsub+1)
  3683  047E  087A               	movf	(2+(?___lltoft)),w
  3684  047F  00D4               	movwf	(?___ftsub+2)
  3685  0480  1683               	bsf	status, 5	;RP0=1, select bank1
  3686  0481  1303               	bcf	status, 6	;RP1=0, select bank1
  3687  0482  0833               	movf	(sprintf@fval)^080h,w
  3688  0483  1283               	bcf	status, 5	;RP0=0, select bank0
  3689  0484  1303               	bcf	status, 6	;RP1=0, select bank0
  3690  0485  00D5               	movwf	0+(?___ftsub)+03h
  3691  0486  1683               	bsf	status, 5	;RP0=1, select bank1
  3692  0487  1303               	bcf	status, 6	;RP1=0, select bank1
  3693  0488  0834               	movf	(sprintf@fval+1)^080h,w
  3694  0489  1283               	bcf	status, 5	;RP0=0, select bank0
  3695  048A  1303               	bcf	status, 6	;RP1=0, select bank0
  3696  048B  00D6               	movwf	1+(?___ftsub)+03h
  3697  048C  1683               	bsf	status, 5	;RP0=1, select bank1
  3698  048D  1303               	bcf	status, 6	;RP1=0, select bank1
  3699  048E  0835               	movf	(sprintf@fval+2)^080h,w
  3700  048F  1283               	bcf	status, 5	;RP0=0, select bank0
  3701  0490  1303               	bcf	status, 6	;RP1=0, select bank0
  3702  0491  00D7               	movwf	2+(?___ftsub)+03h
  3703  0492  120A  158A  2008   	fcall	___ftsub
              120A  118A         
  3704  0497  1283               	bcf	status, 5	;RP0=0, select bank0
  3705  0498  1303               	bcf	status, 6	;RP1=0, select bank0
  3706  0499  0852               	movf	(0+(?___ftsub)),w
  3707  049A  1683               	bsf	status, 5	;RP0=1, select bank1
  3708  049B  1303               	bcf	status, 6	;RP1=0, select bank1
  3709  049C  00B3               	movwf	(sprintf@fval)^080h
  3710  049D  1283               	bcf	status, 5	;RP0=0, select bank0
  3711  049E  1303               	bcf	status, 6	;RP1=0, select bank0
  3712  049F  0853               	movf	(1+(?___ftsub)),w
  3713  04A0  1683               	bsf	status, 5	;RP0=1, select bank1
  3714  04A1  1303               	bcf	status, 6	;RP1=0, select bank1
  3715  04A2  00B4               	movwf	(sprintf@fval+1)^080h
  3716  04A3  1283               	bcf	status, 5	;RP0=0, select bank0
  3717  04A4  1303               	bcf	status, 6	;RP1=0, select bank0
  3718  04A5  0854               	movf	(2+(?___ftsub)),w
  3719  04A6  1683               	bsf	status, 5	;RP0=1, select bank1
  3720  04A7  1303               	bcf	status, 6	;RP1=0, select bank1
  3721  04A8  00B5               	movwf	(sprintf@fval+2)^080h
  3722                           	line	1136
  3723                           	
  3724  04A9                     l8981:	
  3725  04A9  01AE               	clrf	(sprintf@exp)^080h
  3726  04AA  01AF               	clrf	(sprintf@exp+1)^080h
  3727  04AB  2CAC               	goto	l8983
  3728                           	line	1137
  3729                           	
  3730  04AC                     l4043:	
  3731                           	line	1139
  3732                           	
  3733  04AC                     l8983:	
  3734  04AC  01B6               	clrf	(sprintf@c)^080h
  3735  04AD  1403               	bsf	status,0
  3736  04AE  0DB6               	rlf	(sprintf@c)^080h,f
  3737                           	
  3738  04AF                     l8985:	
  3739  04AF  0836               	movf	(sprintf@c)^080h,w
  3740  04B0  3A0A               	xorlw	0Ah
  3741  04B1  1D03               	skipz
  3742  04B2  2CB4               	goto	u4831
  3743  04B3  2CB5               	goto	u4830
  3744  04B4                     u4831:
  3745  04B4  2CB7               	goto	l8989
  3746  04B5                     u4830:
  3747  04B5  2D0E               	goto	l8997
  3748                           	
  3749  04B6                     l8987:	
  3750  04B6  2D0E               	goto	l8997
  3751                           	line	1140
  3752                           	
  3753  04B7                     l4044:	
  3754                           	
  3755  04B7                     l8989:	
  3756  04B7  0836               	movf	(sprintf@c)^080h,w
  3757  04B8  1283               	bcf	status, 5	;RP0=0, select bank0
  3758  04B9  1303               	bcf	status, 6	;RP1=0, select bank0
  3759  04BA  00E6               	movwf	(??_sprintf+0)+0
  3760  04BB  3001               	movlw	(02h)-1
  3761  04BC                     u4845:
  3762  04BC  1003               	clrc
  3763  04BD  0DE6               	rlf	(??_sprintf+0)+0,f
  3764  04BE  3EFF               	addlw	-1
  3765  04BF  1D03               	skipz
  3766  04C0  2CBC               	goto	u4845
  3767  04C1  1003               	clrc
  3768  04C2  0D66               	rlf	(??_sprintf+0)+0,w
  3769  04C3  3E01               	addlw	low((_dpowers-__stringbase))
  3770  04C4  0084               	movwf	fsr0
  3771  04C5  160A  118A  200A   	fcall	stringdir
              120A  118A         
  3772  04CA  00E7               	movwf	((??_sprintf+1)+0)
  3773  04CB  160A  118A  200A   	fcall	stringdir
              120A  118A         
  3774  04D0  00E8               	movwf	((??_sprintf+1)+0+1)
  3775  04D1  160A  118A  200A   	fcall	stringdir
              120A  118A         
  3776  04D6  00E9               	movwf	((??_sprintf+1)+0+2)
  3777  04D7  160A  118A  200A   	fcall	stringdir
              120A  118A         
  3778  04DC  00EA               	movwf	((??_sprintf+1)+0+3)
  3779  04DD  086A               	movf	3+(??_sprintf+1)+0,w
  3780  04DE  1683               	bsf	status, 5	;RP0=1, select bank1
  3781  04DF  1303               	bcf	status, 6	;RP1=0, select bank1
  3782  04E0  022D               	subwf	(sprintf@_val+3)^080h,w
  3783  04E1  1D03               	skipz
  3784  04E2  2CF9               	goto	u4855
  3785  04E3  1283               	bcf	status, 5	;RP0=0, select bank0
  3786  04E4  1303               	bcf	status, 6	;RP1=0, select bank0
  3787  04E5  0869               	movf	2+(??_sprintf+1)+0,w
  3788  04E6  1683               	bsf	status, 5	;RP0=1, select bank1
  3789  04E7  1303               	bcf	status, 6	;RP1=0, select bank1
  3790  04E8  022C               	subwf	(sprintf@_val+2)^080h,w
  3791  04E9  1D03               	skipz
  3792  04EA  2CF9               	goto	u4855
  3793  04EB  1283               	bcf	status, 5	;RP0=0, select bank0
  3794  04EC  1303               	bcf	status, 6	;RP1=0, select bank0
  3795  04ED  0868               	movf	1+(??_sprintf+1)+0,w
  3796  04EE  1683               	bsf	status, 5	;RP0=1, select bank1
  3797  04EF  1303               	bcf	status, 6	;RP1=0, select bank1
  3798  04F0  022B               	subwf	(sprintf@_val+1)^080h,w
  3799  04F1  1D03               	skipz
  3800  04F2  2CF9               	goto	u4855
  3801  04F3  1283               	bcf	status, 5	;RP0=0, select bank0
  3802  04F4  1303               	bcf	status, 6	;RP1=0, select bank0
  3803  04F5  0867               	movf	0+(??_sprintf+1)+0,w
  3804  04F6  1683               	bsf	status, 5	;RP0=1, select bank1
  3805  04F7  1303               	bcf	status, 6	;RP1=0, select bank1
  3806  04F8  022A               	subwf	(sprintf@_val)^080h,w
  3807  04F9                     u4855:
  3808  04F9  1803               	skipnc
  3809  04FA  2CFC               	goto	u4851
  3810  04FB  2CFD               	goto	u4850
  3811  04FC                     u4851:
  3812  04FC  2CFF               	goto	l8993
  3813  04FD                     u4850:
  3814  04FD  2D0E               	goto	l8997
  3815                           	line	1141
  3816                           	
  3817  04FE                     l8991:	
  3818  04FE  2D0E               	goto	l8997
  3819                           	
  3820  04FF                     l4046:	
  3821                           	line	1139
  3822                           	
  3823  04FF                     l8993:	
  3824  04FF  3001               	movlw	(01h)
  3825  0500  1283               	bcf	status, 5	;RP0=0, select bank0
  3826  0501  1303               	bcf	status, 6	;RP1=0, select bank0
  3827  0502  00E6               	movwf	(??_sprintf+0)+0
  3828  0503  0866               	movf	(??_sprintf+0)+0,w
  3829  0504  1683               	bsf	status, 5	;RP0=1, select bank1
  3830  0505  1303               	bcf	status, 6	;RP1=0, select bank1
  3831  0506  07B6               	addwf	(sprintf@c)^080h,f
  3832                           	
  3833  0507                     l8995:	
  3834  0507  0836               	movf	(sprintf@c)^080h,w
  3835  0508  3A0A               	xorlw	0Ah
  3836  0509  1D03               	skipz
  3837  050A  2D0C               	goto	u4861
  3838  050B  2D0D               	goto	u4860
  3839  050C                     u4861:
  3840  050C  2CB7               	goto	l8989
  3841  050D                     u4860:
  3842  050D  2D0E               	goto	l8997
  3843                           	
  3844  050E                     l4045:	
  3845                           	line	1189
  3846                           	
  3847  050E                     l8997:	
  3848  050E  3003               	movlw	low(03h)
  3849  050F  0525               	andwf	(sprintf@flag)^080h,w
  3850  0510  1283               	bcf	status, 5	;RP0=0, select bank0
  3851  0511  1303               	bcf	status, 6	;RP1=0, select bank0
  3852  0512  00E6               	movwf	(??_sprintf+0)+0
  3853  0513  3000               	movlw	high(03h)
  3854  0514  1683               	bsf	status, 5	;RP0=1, select bank1
  3855  0515  1303               	bcf	status, 6	;RP1=0, select bank1
  3856  0516  0526               	andwf	(sprintf@flag+1)^080h,w
  3857  0517  1283               	bcf	status, 5	;RP0=0, select bank0
  3858  0518  1303               	bcf	status, 6	;RP1=0, select bank0
  3859  0519  00E7               	movwf	1+(??_sprintf+0)+0
  3860  051A  0867               	movf	1+(??_sprintf+0)+0,w
  3861  051B  0466               	iorwf	0+(??_sprintf+0)+0,w
  3862  051C  1903               	skipnz
  3863  051D  2D1F               	goto	u4871
  3864  051E  2D20               	goto	u4870
  3865  051F                     u4871:
  3866  051F  2D98               	goto	l9007
  3867  0520                     u4870:
  3868                           	line	1191
  3869                           	
  3870  0520                     l8999:	
  3871  0520  302D               	movlw	(02Dh)
  3872  0521  00E6               	movwf	(??_sprintf+0)+0
  3873  0522  1683               	bsf	status, 5	;RP0=1, select bank1
  3874  0523  1303               	bcf	status, 6	;RP1=0, select bank1
  3875  0524  0830               	movf	(sprintf@sp)^080h,w
  3876  0525  0084               	movwf	fsr0
  3877  0526  1283               	bcf	status, 5	;RP0=0, select bank0
  3878  0527  1303               	bcf	status, 6	;RP1=0, select bank0
  3879  0528  0866               	movf	(??_sprintf+0)+0,w
  3880  0529  1383               	bcf	status, 7	;select IRP bank0
  3881  052A  0080               	movwf	indf
  3882                           	
  3883  052B                     l9001:	
  3884  052B  3001               	movlw	(01h)
  3885  052C  00E6               	movwf	(??_sprintf+0)+0
  3886  052D  0866               	movf	(??_sprintf+0)+0,w
  3887  052E  1683               	bsf	status, 5	;RP0=1, select bank1
  3888  052F  1303               	bcf	status, 6	;RP1=0, select bank1
  3889  0530  07B0               	addwf	(sprintf@sp)^080h,f
  3890  0531  2D98               	goto	l9007
  3891                           	
  3892  0532                     l4047:	
  3893                           	line	1197
  3894  0532  2D98               	goto	l9007
  3895                           	
  3896  0533                     l4049:	
  3897                           	line	1201
  3898                           	
  3899  0533                     l9003:	
  3900  0533  3000               	movlw	0
  3901  0534  1283               	bcf	status, 5	;RP0=0, select bank0
  3902  0535  1303               	bcf	status, 6	;RP1=0, select bank0
  3903  0536  00A3               	movwf	(?___llmod+3)
  3904  0537  3000               	movlw	0
  3905  0538  00A2               	movwf	(?___llmod+2)
  3906  0539  3000               	movlw	0
  3907  053A  00A1               	movwf	(?___llmod+1)
  3908  053B  300A               	movlw	0Ah
  3909  053C  00A0               	movwf	(?___llmod)
  3910                           
  3911  053D  1683               	bsf	status, 5	;RP0=1, select bank1
  3912  053E  1303               	bcf	status, 6	;RP1=0, select bank1
  3913  053F  0836               	movf	(sprintf@c)^080h,w
  3914  0540  1283               	bcf	status, 5	;RP0=0, select bank0
  3915  0541  1303               	bcf	status, 6	;RP1=0, select bank0
  3916  0542  00E6               	movwf	(??_sprintf+0)+0
  3917  0543  3001               	movlw	(02h)-1
  3918  0544                     u4885:
  3919  0544  1003               	clrc
  3920  0545  0DE6               	rlf	(??_sprintf+0)+0,f
  3921  0546  3EFF               	addlw	-1
  3922  0547  1D03               	skipz
  3923  0548  2D44               	goto	u4885
  3924  0549  1003               	clrc
  3925  054A  0D66               	rlf	(??_sprintf+0)+0,w
  3926  054B  3E01               	addlw	low((_dpowers-__stringbase))
  3927  054C  0084               	movwf	fsr0
  3928  054D  160A  118A  200A   	fcall	stringdir
              120A  118A         
  3929  0552  00F0               	movwf	(?___lldiv)
  3930  0553  160A  118A  200A   	fcall	stringdir
              120A  118A         
  3931  0558  00F1               	movwf	(?___lldiv+1)
  3932  0559  160A  118A  200A   	fcall	stringdir
              120A  118A         
  3933  055E  00F2               	movwf	(?___lldiv+2)
  3934  055F  160A  118A  200A   	fcall	stringdir
              120A  118A         
  3935  0564  00F3               	movwf	(?___lldiv+3)
  3936  0565  1683               	bsf	status, 5	;RP0=1, select bank1
  3937  0566  1303               	bcf	status, 6	;RP1=0, select bank1
  3938  0567  082D               	movf	(sprintf@_val+3)^080h,w
  3939  0568  00F7               	movwf	3+(?___lldiv)+04h
  3940  0569  082C               	movf	(sprintf@_val+2)^080h,w
  3941  056A  00F6               	movwf	2+(?___lldiv)+04h
  3942  056B  082B               	movf	(sprintf@_val+1)^080h,w
  3943  056C  00F5               	movwf	1+(?___lldiv)+04h
  3944  056D  082A               	movf	(sprintf@_val)^080h,w
  3945  056E  00F4               	movwf	0+(?___lldiv)+04h
  3946                           
  3947  056F  160A  118A  2361   	fcall	___lldiv
              120A  118A         
  3948  0574  0873               	movf	(3+(?___lldiv)),w
  3949  0575  1283               	bcf	status, 5	;RP0=0, select bank0
  3950  0576  1303               	bcf	status, 6	;RP1=0, select bank0
  3951  0577  00A7               	movwf	3+(?___llmod)+04h
  3952  0578  0872               	movf	(2+(?___lldiv)),w
  3953  0579  00A6               	movwf	2+(?___llmod)+04h
  3954  057A  0871               	movf	(1+(?___lldiv)),w
  3955  057B  00A5               	movwf	1+(?___llmod)+04h
  3956  057C  0870               	movf	(0+(?___lldiv)),w
  3957  057D  00A4               	movwf	0+(?___llmod)+04h
  3958                           
  3959  057E  160A  118A  2231   	fcall	___llmod
              120A  118A         
  3960  0583  1283               	bcf	status, 5	;RP0=0, select bank0
  3961  0584  1303               	bcf	status, 6	;RP1=0, select bank0
  3962  0585  0820               	movf	0+(((0+(?___llmod)))),w
  3963  0586  3E30               	addlw	030h
  3964  0587  00E7               	movwf	(??_sprintf+1)+0
  3965  0588  1683               	bsf	status, 5	;RP0=1, select bank1
  3966  0589  1303               	bcf	status, 6	;RP1=0, select bank1
  3967  058A  0830               	movf	(sprintf@sp)^080h,w
  3968  058B  0084               	movwf	fsr0
  3969  058C  1283               	bcf	status, 5	;RP0=0, select bank0
  3970  058D  1303               	bcf	status, 6	;RP1=0, select bank0
  3971  058E  0867               	movf	(??_sprintf+1)+0,w
  3972  058F  1383               	bcf	status, 7	;select IRP bank0
  3973  0590  0080               	movwf	indf
  3974                           	
  3975  0591                     l9005:	
  3976  0591  3001               	movlw	(01h)
  3977  0592  00E6               	movwf	(??_sprintf+0)+0
  3978  0593  0866               	movf	(??_sprintf+0)+0,w
  3979  0594  1683               	bsf	status, 5	;RP0=1, select bank1
  3980  0595  1303               	bcf	status, 6	;RP1=0, select bank1
  3981  0596  07B0               	addwf	(sprintf@sp)^080h,f
  3982  0597  2D98               	goto	l9007
  3983                           	line	1203
  3984                           	
  3985  0598                     l4048:	
  3986                           	line	1197
  3987                           	
  3988  0598                     l9007:	
  3989  0598  30FF               	movlw	(-1)
  3990  0599  1283               	bcf	status, 5	;RP0=0, select bank0
  3991  059A  00E6               	movwf	(??_sprintf+0)+0
  3992  059B  0866               	movf	(??_sprintf+0)+0,w
  3993  059C  1683               	bsf	status, 5	;RP0=1, select bank1
  3994  059D  1303               	bcf	status, 6	;RP1=0, select bank1
  3995  059E  07B6               	addwf	(sprintf@c)^080h,f
  3996  059F  0836               	movf	((sprintf@c)^080h),w
  3997  05A0  3AFF               	xorlw	-1
  3998  05A1  1D03               	skipz
  3999  05A2  2DA4               	goto	u4891
  4000  05A3  2DA5               	goto	u4890
  4001  05A4                     u4891:
  4002  05A4  2D33               	goto	l9003
  4003  05A5                     u4890:
  4004  05A5  2DC1               	goto	l9015
  4005                           	
  4006  05A6                     l4050:	
  4007                           	line	1204
  4008  05A6  2DC1               	goto	l9015
  4009                           	
  4010  05A7                     l4052:	
  4011                           	line	1205
  4012                           	
  4013  05A7                     l9009:	
  4014  05A7  3030               	movlw	(030h)
  4015  05A8  1283               	bcf	status, 5	;RP0=0, select bank0
  4016  05A9  1303               	bcf	status, 6	;RP1=0, select bank0
  4017  05AA  00E6               	movwf	(??_sprintf+0)+0
  4018  05AB  1683               	bsf	status, 5	;RP0=1, select bank1
  4019  05AC  1303               	bcf	status, 6	;RP1=0, select bank1
  4020  05AD  0830               	movf	(sprintf@sp)^080h,w
  4021  05AE  0084               	movwf	fsr0
  4022  05AF  1283               	bcf	status, 5	;RP0=0, select bank0
  4023  05B0  1303               	bcf	status, 6	;RP1=0, select bank0
  4024  05B1  0866               	movf	(??_sprintf+0)+0,w
  4025  05B2  1383               	bcf	status, 7	;select IRP bank0
  4026  05B3  0080               	movwf	indf
  4027                           	
  4028  05B4                     l9011:	
  4029  05B4  3001               	movlw	(01h)
  4030  05B5  00E6               	movwf	(??_sprintf+0)+0
  4031  05B6  0866               	movf	(??_sprintf+0)+0,w
  4032  05B7  1683               	bsf	status, 5	;RP0=1, select bank1
  4033  05B8  1303               	bcf	status, 6	;RP1=0, select bank1
  4034  05B9  07B0               	addwf	(sprintf@sp)^080h,f
  4035                           	line	1206
  4036                           	
  4037  05BA                     l9013:	
  4038  05BA  30FF               	movlw	low(-1)
  4039  05BB  07AE               	addwf	(sprintf@exp)^080h,f
  4040  05BC  1803               	skipnc
  4041  05BD  0AAF               	incf	(sprintf@exp+1)^080h,f
  4042  05BE  30FF               	movlw	high(-1)
  4043  05BF  07AF               	addwf	(sprintf@exp+1)^080h,f
  4044  05C0  2DC1               	goto	l9015
  4045                           	line	1207
  4046                           	
  4047  05C1                     l4051:	
  4048                           	line	1204
  4049                           	
  4050  05C1                     l9015:	
  4051  05C1  082F               	movf	(sprintf@exp+1)^080h,w
  4052  05C2  3A80               	xorlw	80h
  4053  05C3  00FF               	movwf	btemp+1
  4054  05C4  3080               	movlw	(high(01h))^80h
  4055  05C5  027F               	subwf	btemp+1,w
  4056  05C6  1D03               	skipz
  4057  05C7  2DCA               	goto	u4905
  4058  05C8  3001               	movlw	low(01h)
  4059  05C9  022E               	subwf	(sprintf@exp)^080h,w
  4060  05CA                     u4905:
  4061                           
  4062  05CA  1803               	skipnc
  4063  05CB  2DCD               	goto	u4901
  4064  05CC  2DCE               	goto	u4900
  4065  05CD                     u4901:
  4066  05CD  2DA7               	goto	l9009
  4067  05CE                     u4900:
  4068  05CE  2DCF               	goto	l9017
  4069                           	
  4070  05CF                     l4053:	
  4071                           	line	1208
  4072                           	
  4073  05CF                     l9017:	
  4074  05CF  1683               	bsf	status, 5	;RP0=1, select bank1
  4075  05D0  1303               	bcf	status, 6	;RP1=0, select bank1
  4076  05D1  0832               	movf	(sprintf@prec+1)^080h,w
  4077  05D2  3A80               	xorlw	80h
  4078  05D3  00FF               	movwf	btemp+1
  4079  05D4  3080               	movlw	(high(09h))^80h
  4080  05D5  027F               	subwf	btemp+1,w
  4081  05D6  1D03               	skipz
  4082  05D7  2DDA               	goto	u4915
  4083  05D8  3009               	movlw	low(09h)
  4084  05D9  0231               	subwf	(sprintf@prec)^080h,w
  4085  05DA                     u4915:
  4086                           
  4087  05DA  1C03               	skipc
  4088  05DB  2DDD               	goto	u4911
  4089  05DC  2DDE               	goto	u4910
  4090  05DD                     u4911:
  4091  05DD  2DE7               	goto	l9021
  4092  05DE                     u4910:
  4093                           	line	1209
  4094                           	
  4095  05DE                     l9019:	
  4096  05DE  3008               	movlw	(08h)
  4097  05DF  1283               	bcf	status, 5	;RP0=0, select bank0
  4098  05E0  1303               	bcf	status, 6	;RP1=0, select bank0
  4099  05E1  00E6               	movwf	(??_sprintf+0)+0
  4100  05E2  0866               	movf	(??_sprintf+0)+0,w
  4101  05E3  1683               	bsf	status, 5	;RP0=1, select bank1
  4102  05E4  1303               	bcf	status, 6	;RP1=0, select bank1
  4103  05E5  00B6               	movwf	(sprintf@c)^080h
  4104  05E6  2DF1               	goto	l4055
  4105                           	line	1210
  4106                           	
  4107  05E7                     l4054:	
  4108                           	line	1211
  4109                           	
  4110  05E7                     l9021:	
  4111  05E7  1683               	bsf	status, 5	;RP0=1, select bank1
  4112  05E8  1303               	bcf	status, 6	;RP1=0, select bank1
  4113  05E9  0831               	movf	(sprintf@prec)^080h,w
  4114  05EA  1283               	bcf	status, 5	;RP0=0, select bank0
  4115  05EB  1303               	bcf	status, 6	;RP1=0, select bank0
  4116  05EC  00E6               	movwf	(??_sprintf+0)+0
  4117  05ED  0866               	movf	(??_sprintf+0)+0,w
  4118  05EE  1683               	bsf	status, 5	;RP0=1, select bank1
  4119  05EF  1303               	bcf	status, 6	;RP1=0, select bank1
  4120  05F0  00B6               	movwf	(sprintf@c)^080h
  4121                           	
  4122  05F1                     l4055:	
  4123                           	line	1212
  4124  05F1  0836               	movf	(sprintf@c)^080h,w
  4125  05F2  1283               	bcf	status, 5	;RP0=0, select bank0
  4126  05F3  1303               	bcf	status, 6	;RP1=0, select bank0
  4127  05F4  00E6               	movwf	(??_sprintf+0)+0
  4128  05F5  01E7               	clrf	(??_sprintf+0)+0+1
  4129  05F6  1BE6               	btfsc	(??_sprintf+0)+0,7
  4130  05F7  03E7               	decf	(??_sprintf+0)+0+1,f
  4131  05F8  0866               	movf	0+(??_sprintf+0)+0,w
  4132  05F9  1683               	bsf	status, 5	;RP0=1, select bank1
  4133  05FA  1303               	bcf	status, 6	;RP1=0, select bank1
  4134  05FB  02B1               	subwf	(sprintf@prec)^080h,f
  4135  05FC  1283               	bcf	status, 5	;RP0=0, select bank0
  4136  05FD  1303               	bcf	status, 6	;RP1=0, select bank0
  4137  05FE  0867               	movf	1+(??_sprintf+0)+0,w
  4138  05FF  1683               	bsf	status, 5	;RP0=1, select bank1
  4139  0600  1303               	bcf	status, 6	;RP1=0, select bank1
  4140  0601  1C03               	skipc
  4141  0602  03B2               	decf	(sprintf@prec+1)^080h,f
  4142  0603  02B2               	subwf	(sprintf@prec+1)^080h,f
  4143                           	line	1216
  4144  0604  0836               	movf	(sprintf@c)^080h,w
  4145  0605  1D03               	skipz
  4146  0606  2E08               	goto	u4920
  4147  0607  2E1C               	goto	l9027
  4148  0608                     u4920:
  4149                           	line	1218
  4150                           	
  4151  0608                     l9023:	
  4152  0608  302E               	movlw	(02Eh)
  4153  0609  1283               	bcf	status, 5	;RP0=0, select bank0
  4154  060A  1303               	bcf	status, 6	;RP1=0, select bank0
  4155  060B  00E6               	movwf	(??_sprintf+0)+0
  4156  060C  1683               	bsf	status, 5	;RP0=1, select bank1
  4157  060D  1303               	bcf	status, 6	;RP1=0, select bank1
  4158  060E  0830               	movf	(sprintf@sp)^080h,w
  4159  060F  0084               	movwf	fsr0
  4160  0610  1283               	bcf	status, 5	;RP0=0, select bank0
  4161  0611  1303               	bcf	status, 6	;RP1=0, select bank0
  4162  0612  0866               	movf	(??_sprintf+0)+0,w
  4163  0613  1383               	bcf	status, 7	;select IRP bank0
  4164  0614  0080               	movwf	indf
  4165                           	
  4166  0615                     l9025:	
  4167  0615  3001               	movlw	(01h)
  4168  0616  00E6               	movwf	(??_sprintf+0)+0
  4169  0617  0866               	movf	(??_sprintf+0)+0,w
  4170  0618  1683               	bsf	status, 5	;RP0=1, select bank1
  4171  0619  1303               	bcf	status, 6	;RP1=0, select bank1
  4172  061A  07B0               	addwf	(sprintf@sp)^080h,f
  4173  061B  2E1C               	goto	l9027
  4174                           	
  4175  061C                     l4056:	
  4176                           	line	1224
  4177                           	
  4178  061C                     l9027:	
  4179  061C  0836               	movf	(sprintf@c)^080h,w
  4180  061D  120A  158A  2541   	fcall	_scale
              120A  118A         
  4181  0622  1283               	bcf	status, 5	;RP0=0, select bank0
  4182  0623  1303               	bcf	status, 6	;RP1=0, select bank0
  4183  0624  0845               	movf	(0+(?_scale)),w
  4184  0625  00B8               	movwf	0+(?___ftmul)+03h
  4185  0626  0846               	movf	(1+(?_scale)),w
  4186  0627  00B9               	movwf	1+(?___ftmul)+03h
  4187  0628  0847               	movf	(2+(?_scale)),w
  4188  0629  00BA               	movwf	2+(?___ftmul)+03h
  4189  062A  1683               	bsf	status, 5	;RP0=1, select bank1
  4190  062B  1303               	bcf	status, 6	;RP1=0, select bank1
  4191  062C  0833               	movf	(sprintf@fval)^080h,w
  4192  062D  1283               	bcf	status, 5	;RP0=0, select bank0
  4193  062E  1303               	bcf	status, 6	;RP1=0, select bank0
  4194  062F  00B5               	movwf	(?___ftmul)
  4195  0630  1683               	bsf	status, 5	;RP0=1, select bank1
  4196  0631  1303               	bcf	status, 6	;RP1=0, select bank1
  4197  0632  0834               	movf	(sprintf@fval+1)^080h,w
  4198  0633  1283               	bcf	status, 5	;RP0=0, select bank0
  4199  0634  1303               	bcf	status, 6	;RP1=0, select bank0
  4200  0635  00B6               	movwf	(?___ftmul+1)
  4201  0636  1683               	bsf	status, 5	;RP0=1, select bank1
  4202  0637  1303               	bcf	status, 6	;RP1=0, select bank1
  4203  0638  0835               	movf	(sprintf@fval+2)^080h,w
  4204  0639  1283               	bcf	status, 5	;RP0=0, select bank0
  4205  063A  1303               	bcf	status, 6	;RP1=0, select bank0
  4206  063B  00B7               	movwf	(?___ftmul+2)
  4207  063C  120A  118A  201E   	fcall	___ftmul
              120A  118A         
  4208  0641  1283               	bcf	status, 5	;RP0=0, select bank0
  4209  0642  1303               	bcf	status, 6	;RP1=0, select bank0
  4210  0643  0835               	movf	(0+(?___ftmul)),w
  4211  0644  00A7               	movwf	(?___fttol)
  4212  0645  0836               	movf	(1+(?___ftmul)),w
  4213  0646  00A8               	movwf	(?___fttol+1)
  4214  0647  0837               	movf	(2+(?___ftmul)),w
  4215  0648  00A9               	movwf	(?___fttol+2)
  4216  0649  160A  118A  24C0   	fcall	___fttol
              120A  118A         
  4217  064E  1283               	bcf	status, 5	;RP0=0, select bank0
  4218  064F  1303               	bcf	status, 6	;RP1=0, select bank0
  4219  0650  082A               	movf	(3+(?___fttol)),w
  4220  0651  1683               	bsf	status, 5	;RP0=1, select bank1
  4221  0652  1303               	bcf	status, 6	;RP1=0, select bank1
  4222  0653  00AD               	movwf	(sprintf@_val+3)^080h
  4223  0654  1283               	bcf	status, 5	;RP0=0, select bank0
  4224  0655  1303               	bcf	status, 6	;RP1=0, select bank0
  4225  0656  0829               	movf	(2+(?___fttol)),w
  4226  0657  1683               	bsf	status, 5	;RP0=1, select bank1
  4227  0658  1303               	bcf	status, 6	;RP1=0, select bank1
  4228  0659  00AC               	movwf	(sprintf@_val+2)^080h
  4229  065A  1283               	bcf	status, 5	;RP0=0, select bank0
  4230  065B  1303               	bcf	status, 6	;RP1=0, select bank0
  4231  065C  0828               	movf	(1+(?___fttol)),w
  4232  065D  1683               	bsf	status, 5	;RP0=1, select bank1
  4233  065E  1303               	bcf	status, 6	;RP1=0, select bank1
  4234  065F  00AB               	movwf	(sprintf@_val+1)^080h
  4235  0660  1283               	bcf	status, 5	;RP0=0, select bank0
  4236  0661  1303               	bcf	status, 6	;RP1=0, select bank0
  4237  0662  0827               	movf	(0+(?___fttol)),w
  4238  0663  1683               	bsf	status, 5	;RP0=1, select bank1
  4239  0664  1303               	bcf	status, 6	;RP1=0, select bank1
  4240  0665  00AA               	movwf	(sprintf@_val)^080h
  4241                           
  4242                           	line	1225
  4243  0666  2F26               	goto	l4057
  4244                           	
  4245  0667                     l4058:	
  4246                           	line	1226
  4247                           	
  4248  0667                     l9029:	
  4249  0667  3000               	movlw	0
  4250  0668  1283               	bcf	status, 5	;RP0=0, select bank0
  4251  0669  1303               	bcf	status, 6	;RP1=0, select bank0
  4252  066A  00A3               	movwf	(?___llmod+3)
  4253  066B  3000               	movlw	0
  4254  066C  00A2               	movwf	(?___llmod+2)
  4255  066D  3000               	movlw	0
  4256  066E  00A1               	movwf	(?___llmod+1)
  4257  066F  300A               	movlw	0Ah
  4258  0670  00A0               	movwf	(?___llmod)
  4259                           
  4260  0671  1683               	bsf	status, 5	;RP0=1, select bank1
  4261  0672  1303               	bcf	status, 6	;RP1=0, select bank1
  4262  0673  0836               	movf	(sprintf@c)^080h,w
  4263  0674  1283               	bcf	status, 5	;RP0=0, select bank0
  4264  0675  1303               	bcf	status, 6	;RP1=0, select bank0
  4265  0676  00E6               	movwf	(??_sprintf+0)+0
  4266  0677  3001               	movlw	(02h)-1
  4267  0678                     u4935:
  4268  0678  1003               	clrc
  4269  0679  0DE6               	rlf	(??_sprintf+0)+0,f
  4270  067A  3EFF               	addlw	-1
  4271  067B  1D03               	skipz
  4272  067C  2E78               	goto	u4935
  4273  067D  1003               	clrc
  4274  067E  0D66               	rlf	(??_sprintf+0)+0,w
  4275  067F  3E01               	addlw	low((_dpowers-__stringbase))
  4276  0680  0084               	movwf	fsr0
  4277  0681  160A  118A  200A   	fcall	stringdir
              120A  118A         
  4278  0686  00F0               	movwf	(?___lldiv)
  4279  0687  160A  118A  200A   	fcall	stringdir
              120A  118A         
  4280  068C  00F1               	movwf	(?___lldiv+1)
  4281  068D  160A  118A  200A   	fcall	stringdir
              120A  118A         
  4282  0692  00F2               	movwf	(?___lldiv+2)
  4283  0693  160A  118A  200A   	fcall	stringdir
              120A  118A         
  4284  0698  00F3               	movwf	(?___lldiv+3)
  4285  0699  1683               	bsf	status, 5	;RP0=1, select bank1
  4286  069A  1303               	bcf	status, 6	;RP1=0, select bank1
  4287  069B  082D               	movf	(sprintf@_val+3)^080h,w
  4288  069C  00F7               	movwf	3+(?___lldiv)+04h
  4289  069D  082C               	movf	(sprintf@_val+2)^080h,w
  4290  069E  00F6               	movwf	2+(?___lldiv)+04h
  4291  069F  082B               	movf	(sprintf@_val+1)^080h,w
  4292  06A0  00F5               	movwf	1+(?___lldiv)+04h
  4293  06A1  082A               	movf	(sprintf@_val)^080h,w
  4294  06A2  00F4               	movwf	0+(?___lldiv)+04h
  4295                           
  4296  06A3  160A  118A  2361   	fcall	___lldiv
              120A  118A         
  4297  06A8  0873               	movf	(3+(?___lldiv)),w
  4298  06A9  1283               	bcf	status, 5	;RP0=0, select bank0
  4299  06AA  1303               	bcf	status, 6	;RP1=0, select bank0
  4300  06AB  00A7               	movwf	3+(?___llmod)+04h
  4301  06AC  0872               	movf	(2+(?___lldiv)),w
  4302  06AD  00A6               	movwf	2+(?___llmod)+04h
  4303  06AE  0871               	movf	(1+(?___lldiv)),w
  4304  06AF  00A5               	movwf	1+(?___llmod)+04h
  4305  06B0  0870               	movf	(0+(?___lldiv)),w
  4306  06B1  00A4               	movwf	0+(?___llmod)+04h
  4307                           
  4308  06B2  160A  118A  2231   	fcall	___llmod
              120A  118A         
  4309  06B7  1283               	bcf	status, 5	;RP0=0, select bank0
  4310  06B8  1303               	bcf	status, 6	;RP1=0, select bank0
  4311  06B9  0820               	movf	0+(((0+(?___llmod)))),w
  4312  06BA  3E30               	addlw	030h
  4313  06BB  00E7               	movwf	(??_sprintf+1)+0
  4314  06BC  1683               	bsf	status, 5	;RP0=1, select bank1
  4315  06BD  1303               	bcf	status, 6	;RP1=0, select bank1
  4316  06BE  0830               	movf	(sprintf@sp)^080h,w
  4317  06BF  0084               	movwf	fsr0
  4318  06C0  1283               	bcf	status, 5	;RP0=0, select bank0
  4319  06C1  1303               	bcf	status, 6	;RP1=0, select bank0
  4320  06C2  0867               	movf	(??_sprintf+1)+0,w
  4321  06C3  1383               	bcf	status, 7	;select IRP bank0
  4322  06C4  0080               	movwf	indf
  4323                           	
  4324  06C5                     l9031:	
  4325  06C5  3001               	movlw	(01h)
  4326  06C6  00E6               	movwf	(??_sprintf+0)+0
  4327  06C7  0866               	movf	(??_sprintf+0)+0,w
  4328  06C8  1683               	bsf	status, 5	;RP0=1, select bank1
  4329  06C9  1303               	bcf	status, 6	;RP1=0, select bank1
  4330  06CA  07B0               	addwf	(sprintf@sp)^080h,f
  4331                           	line	1227
  4332                           	
  4333  06CB                     l9033:	
  4334  06CB  0836               	movf	(sprintf@c)^080h,w
  4335  06CC  1283               	bcf	status, 5	;RP0=0, select bank0
  4336  06CD  1303               	bcf	status, 6	;RP1=0, select bank0
  4337  06CE  00E6               	movwf	(??_sprintf+0)+0
  4338  06CF  3001               	movlw	(02h)-1
  4339  06D0                     u4945:
  4340  06D0  1003               	clrc
  4341  06D1  0DE6               	rlf	(??_sprintf+0)+0,f
  4342  06D2  3EFF               	addlw	-1
  4343  06D3  1D03               	skipz
  4344  06D4  2ED0               	goto	u4945
  4345  06D5  1003               	clrc
  4346  06D6  0D66               	rlf	(??_sprintf+0)+0,w
  4347  06D7  3E01               	addlw	low((_dpowers-__stringbase))
  4348  06D8  0084               	movwf	fsr0
  4349  06D9  160A  118A  200A   	fcall	stringdir
              120A  118A         
  4350  06DE  00A0               	movwf	(?___llmod)
  4351  06DF  160A  118A  200A   	fcall	stringdir
              120A  118A         
  4352  06E4  00A1               	movwf	(?___llmod+1)
  4353  06E5  160A  118A  200A   	fcall	stringdir
              120A  118A         
  4354  06EA  00A2               	movwf	(?___llmod+2)
  4355  06EB  160A  118A  200A   	fcall	stringdir
              120A  118A         
  4356  06F0  00A3               	movwf	(?___llmod+3)
  4357  06F1  1683               	bsf	status, 5	;RP0=1, select bank1
  4358  06F2  1303               	bcf	status, 6	;RP1=0, select bank1
  4359  06F3  082D               	movf	(sprintf@_val+3)^080h,w
  4360  06F4  1283               	bcf	status, 5	;RP0=0, select bank0
  4361  06F5  1303               	bcf	status, 6	;RP1=0, select bank0
  4362  06F6  00A7               	movwf	3+(?___llmod)+04h
  4363  06F7  1683               	bsf	status, 5	;RP0=1, select bank1
  4364  06F8  1303               	bcf	status, 6	;RP1=0, select bank1
  4365  06F9  082C               	movf	(sprintf@_val+2)^080h,w
  4366  06FA  1283               	bcf	status, 5	;RP0=0, select bank0
  4367  06FB  1303               	bcf	status, 6	;RP1=0, select bank0
  4368  06FC  00A6               	movwf	2+(?___llmod)+04h
  4369  06FD  1683               	bsf	status, 5	;RP0=1, select bank1
  4370  06FE  1303               	bcf	status, 6	;RP1=0, select bank1
  4371  06FF  082B               	movf	(sprintf@_val+1)^080h,w
  4372  0700  1283               	bcf	status, 5	;RP0=0, select bank0
  4373  0701  1303               	bcf	status, 6	;RP1=0, select bank0
  4374  0702  00A5               	movwf	1+(?___llmod)+04h
  4375  0703  1683               	bsf	status, 5	;RP0=1, select bank1
  4376  0704  1303               	bcf	status, 6	;RP1=0, select bank1
  4377  0705  082A               	movf	(sprintf@_val)^080h,w
  4378  0706  1283               	bcf	status, 5	;RP0=0, select bank0
  4379  0707  1303               	bcf	status, 6	;RP1=0, select bank0
  4380  0708  00A4               	movwf	0+(?___llmod)+04h
  4381                           
  4382  0709  160A  118A  2231   	fcall	___llmod
              120A  118A         
  4383  070E  1283               	bcf	status, 5	;RP0=0, select bank0
  4384  070F  1303               	bcf	status, 6	;RP1=0, select bank0
  4385  0710  0823               	movf	(3+(?___llmod)),w
  4386  0711  1683               	bsf	status, 5	;RP0=1, select bank1
  4387  0712  1303               	bcf	status, 6	;RP1=0, select bank1
  4388  0713  00AD               	movwf	(sprintf@_val+3)^080h
  4389  0714  1283               	bcf	status, 5	;RP0=0, select bank0
  4390  0715  1303               	bcf	status, 6	;RP1=0, select bank0
  4391  0716  0822               	movf	(2+(?___llmod)),w
  4392  0717  1683               	bsf	status, 5	;RP0=1, select bank1
  4393  0718  1303               	bcf	status, 6	;RP1=0, select bank1
  4394  0719  00AC               	movwf	(sprintf@_val+2)^080h
  4395  071A  1283               	bcf	status, 5	;RP0=0, select bank0
  4396  071B  1303               	bcf	status, 6	;RP1=0, select bank0
  4397  071C  0821               	movf	(1+(?___llmod)),w
  4398  071D  1683               	bsf	status, 5	;RP0=1, select bank1
  4399  071E  1303               	bcf	status, 6	;RP1=0, select bank1
  4400  071F  00AB               	movwf	(sprintf@_val+1)^080h
  4401  0720  1283               	bcf	status, 5	;RP0=0, select bank0
  4402  0721  1303               	bcf	status, 6	;RP1=0, select bank0
  4403  0722  0820               	movf	(0+(?___llmod)),w
  4404  0723  1683               	bsf	status, 5	;RP0=1, select bank1
  4405  0724  1303               	bcf	status, 6	;RP1=0, select bank1
  4406  0725  00AA               	movwf	(sprintf@_val)^080h
  4407                           
  4408                           	line	1228
  4409                           	
  4410  0726                     l4057:	
  4411                           	line	1225
  4412  0726  30FF               	movlw	(-1)
  4413  0727  1283               	bcf	status, 5	;RP0=0, select bank0
  4414  0728  1303               	bcf	status, 6	;RP1=0, select bank0
  4415  0729  00E6               	movwf	(??_sprintf+0)+0
  4416  072A  0866               	movf	(??_sprintf+0)+0,w
  4417  072B  1683               	bsf	status, 5	;RP0=1, select bank1
  4418  072C  1303               	bcf	status, 6	;RP1=0, select bank1
  4419  072D  07B6               	addwf	(sprintf@c)^080h,f
  4420  072E  0836               	movf	((sprintf@c)^080h),w
  4421  072F  3AFF               	xorlw	-1
  4422  0730  1D03               	skipz
  4423  0731  2F33               	goto	u4951
  4424  0732  2F34               	goto	u4950
  4425  0733                     u4951:
  4426  0733  2E67               	goto	l9029
  4427  0734                     u4950:
  4428  0734  2F50               	goto	l9041
  4429                           	
  4430  0735                     l4059:	
  4431                           	line	1230
  4432  0735  2F50               	goto	l9041
  4433                           	
  4434  0736                     l4061:	
  4435                           	line	1231
  4436                           	
  4437  0736                     l9035:	
  4438  0736  3030               	movlw	(030h)
  4439  0737  1283               	bcf	status, 5	;RP0=0, select bank0
  4440  0738  1303               	bcf	status, 6	;RP1=0, select bank0
  4441  0739  00E6               	movwf	(??_sprintf+0)+0
  4442  073A  1683               	bsf	status, 5	;RP0=1, select bank1
  4443  073B  1303               	bcf	status, 6	;RP1=0, select bank1
  4444  073C  0830               	movf	(sprintf@sp)^080h,w
  4445  073D  0084               	movwf	fsr0
  4446  073E  1283               	bcf	status, 5	;RP0=0, select bank0
  4447  073F  1303               	bcf	status, 6	;RP1=0, select bank0
  4448  0740  0866               	movf	(??_sprintf+0)+0,w
  4449  0741  1383               	bcf	status, 7	;select IRP bank0
  4450  0742  0080               	movwf	indf
  4451                           	
  4452  0743                     l9037:	
  4453  0743  3001               	movlw	(01h)
  4454  0744  00E6               	movwf	(??_sprintf+0)+0
  4455  0745  0866               	movf	(??_sprintf+0)+0,w
  4456  0746  1683               	bsf	status, 5	;RP0=1, select bank1
  4457  0747  1303               	bcf	status, 6	;RP1=0, select bank1
  4458  0748  07B0               	addwf	(sprintf@sp)^080h,f
  4459                           	line	1232
  4460                           	
  4461  0749                     l9039:	
  4462  0749  30FF               	movlw	low(-1)
  4463  074A  07B1               	addwf	(sprintf@prec)^080h,f
  4464  074B  1803               	skipnc
  4465  074C  0AB2               	incf	(sprintf@prec+1)^080h,f
  4466  074D  30FF               	movlw	high(-1)
  4467  074E  07B2               	addwf	(sprintf@prec+1)^080h,f
  4468  074F  2F50               	goto	l9041
  4469                           	line	1233
  4470                           	
  4471  0750                     l4060:	
  4472                           	line	1230
  4473                           	
  4474  0750                     l9041:	
  4475  0750  0832               	movf	((sprintf@prec+1)^080h),w
  4476  0751  0431               	iorwf	((sprintf@prec)^080h),w
  4477  0752  1D03               	skipz
  4478  0753  2F55               	goto	u4961
  4479  0754  2F56               	goto	u4960
  4480  0755                     u4961:
  4481  0755  2F36               	goto	l9035
  4482  0756                     u4960:
  4483  0756  2FE3               	goto	l9061
  4484                           	
  4485  0757                     l4062:	
  4486                           	line	1240
  4487  0757  2FE3               	goto	l9061
  4488                           	line	1241
  4489                           	
  4490  0758                     l4025:	
  4491                           	line	1285
  4492                           	
  4493  0758                     l9043:	
  4494  0758  1683               	bsf	status, 5	;RP0=1, select bank1
  4495  0759  1303               	bcf	status, 6	;RP1=0, select bank1
  4496  075A  0832               	movf	((sprintf@prec+1)^080h),w
  4497  075B  0431               	iorwf	((sprintf@prec)^080h),w
  4498  075C  1D03               	skipz
  4499  075D  2F5F               	goto	u4971
  4500  075E  2F60               	goto	u4970
  4501  075F                     u4971:
  4502  075F  2F6E               	goto	l4063
  4503  0760                     u4970:
  4504                           	
  4505  0760                     l9045:	
  4506  0760  082D               	movf	(sprintf@_val+3)^080h,w
  4507  0761  042C               	iorwf	(sprintf@_val+2)^080h,w
  4508  0762  042B               	iorwf	(sprintf@_val+1)^080h,w
  4509  0763  042A               	iorwf	(sprintf@_val)^080h,w
  4510  0764  1D03               	skipz
  4511  0765  2F67               	goto	u4981
  4512  0766  2F68               	goto	u4980
  4513  0767                     u4981:
  4514  0767  2F6E               	goto	l4063
  4515  0768                     u4980:
  4516                           	line	1286
  4517                           	
  4518  0768                     l9047:	
  4519  0768  3001               	movlw	low(01h)
  4520  0769  07B1               	addwf	(sprintf@prec)^080h,f
  4521  076A  1803               	skipnc
  4522  076B  0AB2               	incf	(sprintf@prec+1)^080h,f
  4523  076C  3000               	movlw	high(01h)
  4524  076D  07B2               	addwf	(sprintf@prec+1)^080h,f
  4525                           	
  4526  076E                     l4063:	
  4527                           	line	1334
  4528  076E  0836               	movf	(sprintf@c)^080h,w
  4529  076F  1283               	bcf	status, 5	;RP0=0, select bank0
  4530  0770  1303               	bcf	status, 6	;RP1=0, select bank0
  4531  0771  00E6               	movwf	(??_sprintf+0)+0
  4532  0772  01E7               	clrf	(??_sprintf+0)+0+1
  4533  0773  1BE6               	btfsc	(??_sprintf+0)+0,7
  4534  0774  03E7               	decf	(??_sprintf+0)+0+1,f
  4535  0775  0867               	movf	1+(??_sprintf+0)+0,w
  4536  0776  3A80               	xorlw	80h
  4537  0777  00E8               	movwf	(??_sprintf+2)+0
  4538  0778  1683               	bsf	status, 5	;RP0=1, select bank1
  4539  0779  1303               	bcf	status, 6	;RP1=0, select bank1
  4540  077A  0832               	movf	(sprintf@prec+1)^080h,w
  4541  077B  3A80               	xorlw	80h
  4542  077C  1283               	bcf	status, 5	;RP0=0, select bank0
  4543  077D  1303               	bcf	status, 6	;RP1=0, select bank0
  4544  077E  0268               	subwf	(??_sprintf+2)+0,w
  4545  077F  1D03               	skipz
  4546  0780  2F87               	goto	u4995
  4547  0781  1683               	bsf	status, 5	;RP0=1, select bank1
  4548  0782  1303               	bcf	status, 6	;RP1=0, select bank1
  4549  0783  0831               	movf	(sprintf@prec)^080h,w
  4550  0784  1283               	bcf	status, 5	;RP0=0, select bank0
  4551  0785  1303               	bcf	status, 6	;RP1=0, select bank0
  4552  0786  0266               	subwf	0+(??_sprintf+0)+0,w
  4553  0787                     u4995:
  4554                           
  4555  0787  1803               	skipnc
  4556  0788  2F8A               	goto	u4991
  4557  0789  2F8B               	goto	u4990
  4558  078A                     u4991:
  4559  078A  2F96               	goto	l9051
  4560  078B                     u4990:
  4561                           	line	1335
  4562                           	
  4563  078B                     l9049:	
  4564  078B  1683               	bsf	status, 5	;RP0=1, select bank1
  4565  078C  1303               	bcf	status, 6	;RP1=0, select bank1
  4566  078D  0831               	movf	(sprintf@prec)^080h,w
  4567  078E  1283               	bcf	status, 5	;RP0=0, select bank0
  4568  078F  1303               	bcf	status, 6	;RP1=0, select bank0
  4569  0790  00E6               	movwf	(??_sprintf+0)+0
  4570  0791  0866               	movf	(??_sprintf+0)+0,w
  4571  0792  1683               	bsf	status, 5	;RP0=1, select bank1
  4572  0793  1303               	bcf	status, 6	;RP1=0, select bank1
  4573  0794  00B6               	movwf	(sprintf@c)^080h
  4574  0795  2FBC               	goto	l9055
  4575                           	line	1336
  4576                           	
  4577  0796                     l4064:	
  4578                           	
  4579  0796                     l9051:	
  4580  0796  1683               	bsf	status, 5	;RP0=1, select bank1
  4581  0797  1303               	bcf	status, 6	;RP1=0, select bank1
  4582  0798  0836               	movf	(sprintf@c)^080h,w
  4583  0799  1283               	bcf	status, 5	;RP0=0, select bank0
  4584  079A  1303               	bcf	status, 6	;RP1=0, select bank0
  4585  079B  00E6               	movwf	(??_sprintf+0)+0
  4586  079C  01E7               	clrf	(??_sprintf+0)+0+1
  4587  079D  1BE6               	btfsc	(??_sprintf+0)+0,7
  4588  079E  03E7               	decf	(??_sprintf+0)+0+1,f
  4589  079F  1683               	bsf	status, 5	;RP0=1, select bank1
  4590  07A0  1303               	bcf	status, 6	;RP1=0, select bank1
  4591  07A1  0832               	movf	(sprintf@prec+1)^080h,w
  4592  07A2  3A80               	xorlw	80h
  4593  07A3  1283               	bcf	status, 5	;RP0=0, select bank0
  4594  07A4  1303               	bcf	status, 6	;RP1=0, select bank0
  4595  07A5  00E8               	movwf	(??_sprintf+2)+0
  4596  07A6  0867               	movf	1+(??_sprintf+0)+0,w
  4597  07A7  3A80               	xorlw	80h
  4598  07A8  0268               	subwf	(??_sprintf+2)+0,w
  4599  07A9  1D03               	skipz
  4600  07AA  2FAF               	goto	u5005
  4601  07AB  0866               	movf	0+(??_sprintf+0)+0,w
  4602  07AC  1683               	bsf	status, 5	;RP0=1, select bank1
  4603  07AD  1303               	bcf	status, 6	;RP1=0, select bank1
  4604  07AE  0231               	subwf	(sprintf@prec)^080h,w
  4605  07AF                     u5005:
  4606                           
  4607  07AF  1803               	skipnc
  4608  07B0  2FB2               	goto	u5001
  4609  07B1  2FB3               	goto	u5000
  4610  07B2                     u5001:
  4611  07B2  2FBC               	goto	l9055
  4612  07B3                     u5000:
  4613                           	line	1337
  4614                           	
  4615  07B3                     l9053:	
  4616  07B3  1683               	bsf	status, 5	;RP0=1, select bank1
  4617  07B4  1303               	bcf	status, 6	;RP1=0, select bank1
  4618  07B5  0836               	movf	(sprintf@c)^080h,w
  4619  07B6  00B1               	movwf	(sprintf@prec)^080h
  4620  07B7  01B2               	clrf	(sprintf@prec+1)^080h
  4621  07B8  1BB1               	btfsc	(sprintf@prec)^080h,7
  4622  07B9  03B2               	decf	(sprintf@prec+1)^080h,f
  4623  07BA  2FBC               	goto	l9055
  4624                           	
  4625  07BB                     l4066:	
  4626  07BB  2FBC               	goto	l9055
  4627                           	line	1417
  4628                           	
  4629  07BC                     l4065:	
  4630                           	line	1433
  4631                           	
  4632  07BC                     l9055:	
  4633  07BC  3003               	movlw	low(03h)
  4634  07BD  1683               	bsf	status, 5	;RP0=1, select bank1
  4635  07BE  1303               	bcf	status, 6	;RP1=0, select bank1
  4636  07BF  0525               	andwf	(sprintf@flag)^080h,w
  4637  07C0  1283               	bcf	status, 5	;RP0=0, select bank0
  4638  07C1  1303               	bcf	status, 6	;RP1=0, select bank0
  4639  07C2  00E6               	movwf	(??_sprintf+0)+0
  4640  07C3  3000               	movlw	high(03h)
  4641  07C4  1683               	bsf	status, 5	;RP0=1, select bank1
  4642  07C5  1303               	bcf	status, 6	;RP1=0, select bank1
  4643  07C6  0526               	andwf	(sprintf@flag+1)^080h,w
  4644  07C7  1283               	bcf	status, 5	;RP0=0, select bank0
  4645  07C8  1303               	bcf	status, 6	;RP1=0, select bank0
  4646  07C9  00E7               	movwf	1+(??_sprintf+0)+0
  4647  07CA  0867               	movf	1+(??_sprintf+0)+0,w
  4648  07CB  0466               	iorwf	0+(??_sprintf+0)+0,w
  4649  07CC  1903               	skipnz
  4650  07CD  2FCF               	goto	u5011
  4651  07CE  2FD0               	goto	u5010
  4652  07CF                     u5011:
  4653  07CF  2FE3               	goto	l9061
  4654  07D0                     u5010:
  4655                           	line	1434
  4656                           	
  4657  07D0                     l9057:	
  4658  07D0  302D               	movlw	(02Dh)
  4659  07D1  00E6               	movwf	(??_sprintf+0)+0
  4660  07D2  1683               	bsf	status, 5	;RP0=1, select bank1
  4661  07D3  1303               	bcf	status, 6	;RP1=0, select bank1
  4662  07D4  0830               	movf	(sprintf@sp)^080h,w
  4663  07D5  0084               	movwf	fsr0
  4664  07D6  1283               	bcf	status, 5	;RP0=0, select bank0
  4665  07D7  1303               	bcf	status, 6	;RP1=0, select bank0
  4666  07D8  0866               	movf	(??_sprintf+0)+0,w
  4667  07D9  1383               	bcf	status, 7	;select IRP bank0
  4668  07DA  0080               	movwf	indf
  4669                           	
  4670  07DB                     l9059:	
  4671  07DB  3001               	movlw	(01h)
  4672  07DC  00E6               	movwf	(??_sprintf+0)+0
  4673  07DD  0866               	movf	(??_sprintf+0)+0,w
  4674  07DE  1683               	bsf	status, 5	;RP0=1, select bank1
  4675  07DF  1303               	bcf	status, 6	;RP1=0, select bank1
  4676  07E0  07B0               	addwf	(sprintf@sp)^080h,f
  4677  07E1  2FE3               	goto	l9061
  4678                           	
  4679  07E2                     l4067:	
  4680  07E2  2FE3               	goto	l9061
  4681                           	line	1525
  4682                           	
  4683  07E3                     l4011:	
  4684                           	line	540
  4685                           	
  4686  07E3                     l9061:	
  4687  07E3  3001               	movlw	01h
  4688  07E4  1283               	bcf	status, 5	;RP0=0, select bank0
  4689  07E5  07E2               	addwf	(sprintf@f),f
  4690  07E6  30FF               	movlw	-01h
  4691  07E7  0762               	addwf	(sprintf@f),w
  4692  07E8  0084               	movwf	fsr0
  4693  07E9  160A  118A  200A   	fcall	stringdir
              120A  118A         
  4694  07EE  00E6               	movwf	(??_sprintf+0)+0
  4695  07EF  0866               	movf	(??_sprintf+0)+0,w
  4696  07F0  1683               	bsf	status, 5	;RP0=1, select bank1
  4697  07F1  1303               	bcf	status, 6	;RP1=0, select bank1
  4698  07F2  00B6               	movwf	(sprintf@c)^080h
  4699  07F3  08B6               	movf	((sprintf@c)^080h),f
  4700  07F4  1D03               	skipz
  4701  07F5  2FF7               	goto	u5021
  4702  07F6  2FF8               	goto	u5020
  4703  07F7                     u5021:
  4704  07F7  2918               	goto	l8877
  4705  07F8                     u5020:
  4706  07F8  2FFA               	goto	l9063
  4707                           	
  4708  07F9                     l4068:	
  4709  07F9  2FFA               	goto	l9063
  4710                           	line	1527
  4711                           	
  4712  07FA                     l4021:	
  4713                           	line	1530
  4714                           	
  4715  07FA                     l9063:	
  4716  07FA  0830               	movf	(sprintf@sp)^080h,w
  4717  07FB  0084               	movwf	fsr0
  4718  07FC  1383               	bcf	status, 7	;select IRP bank0
  4719  07FD  0180               	clrf	indf
  4720  07FE  2FFF               	goto	l4069
  4721                           	line	1532
  4722                           	
  4723  07FF                     l9065:	
  4724                           	line	1533
  4725                           ;	Return value of _sprintf is never used
  4726                           	
  4727  07FF                     l4069:	
  4728  07FF  0008               	return
  4729                           	opt stack 0
  4730                           GLOBAL	__end_of_sprintf
  4731  0800                     	__end_of_sprintf:
  4732 ;; =============== function _sprintf ends ============
  4733                           
  4734                           	signat	_sprintf,4698
  4735                           	global	_lcd_goto
  4736                           psect	text600,local,class=CODE,delta=2
  4737                           global __ptext600
  4738  1FDE                     __ptext600:
  4739                           
  4740 ;; *************** function _lcd_goto *****************
  4741 ;; Defined at:
  4742 ;;		line 81 in file "C:\PIC_PROGS\C\PWM\lcd.c"
  4743 ;; Parameters:    Size  Location     Type
  4744 ;;  pos             1    wreg     unsigned char 
  4745 ;; Auto vars:     Size  Location     Type
  4746 ;;  pos             1    6[COMMON] unsigned char 
  4747 ;; Return value:  Size  Location     Type
  4748 ;;		None               void
  4749 ;; Registers used:
  4750 ;;		wreg, status,2, status,0, pclath, cstack
  4751 ;; Tracked objects:
  4752 ;;		On entry : 0/0
  4753 ;;		On exit  : 0/0
  4754 ;;		Unchanged: 0/0
  4755 ;; Data sizes:     COMMON   BANK0   BANK1   BANK3   BANK2
  4756 ;;      Params:         0       0       0       0       0
  4757 ;;      Locals:         1       0       0       0       0
  4758 ;;      Temps:          0       0       0       0       0
  4759 ;;      Totals:         1       0       0       0       0
  4760 ;;Total ram usage:        1 bytes
  4761 ;; Hardware stack levels used:    1
  4762 ;; Hardware stack levels required when called:    3
  4763 ;; This function calls:
  4764 ;;		_lcd_write
  4765 ;; This function is called by:
  4766 ;;		_main
  4767 ;; This function uses a non-reentrant model
  4768 ;;
  4769                           psect	text600
  4770                           	file	"C:\PIC_PROGS\C\PWM\lcd.c"
  4771                           	line	81
  4772                           	global	__size_of_lcd_goto
  4773  000B                     	__size_of_lcd_goto	equ	__end_of_lcd_goto-_lcd_goto
  4774                           	
  4775  1FDE                     _lcd_goto:	
  4776                           	opt	stack 4
  4777                           ; Regs used in _lcd_goto: [wreg+status,2+status,0+pclath+cstack]
  4778                           ;lcd_goto@pos stored from wreg
  4779  1FDE  00F6               	movwf	(lcd_goto@pos)
  4780                           	line	82
  4781                           	
  4782  1FDF                     l8871:	
  4783                           ;lcd.c: 82: RA2 = 0;
  4784  1FDF  1283               	bcf	status, 5	;RP0=0, select bank0
  4785  1FE0  1303               	bcf	status, 6	;RP1=0, select bank0
  4786  1FE1  1105               	bcf	(42/8),(42)&7
  4787                           	line	83
  4788                           	
  4789  1FE2                     l8873:	
  4790                           ;lcd.c: 83: lcd_write(pos);
  4791  1FE2  0876               	movf	(lcd_goto@pos),w
  4792  1FE3  160A  118A  2106   	fcall	_lcd_write
              160A  158A         
  4793                           	line	84
  4794                           	
  4795  1FE8                     l1915:	
  4796  1FE8  0008               	return
  4797                           	opt stack 0
  4798                           GLOBAL	__end_of_lcd_goto
  4799  1FE9                     	__end_of_lcd_goto:
  4800 ;; =============== function _lcd_goto ends ============
  4801                           
  4802                           	signat	_lcd_goto,4216
  4803                           	global	_lcd_puts
  4804                           psect	text601,local,class=CODE,delta=2
  4805                           global __ptext601
  4806  1177                     __ptext601:
  4807                           
  4808 ;; *************** function _lcd_puts *****************
  4809 ;; Defined at:
  4810 ;;		line 59 in file "C:\PIC_PROGS\C\PWM\lcd.c"
  4811 ;; Parameters:    Size  Location     Type
  4812 ;;  s               2    6[COMMON] PTR const unsigned char 
  4813 ;;		 -> buffer(20), STR_1(16), 
  4814 ;; Auto vars:     Size  Location     Type
  4815 ;;		None
  4816 ;; Return value:  Size  Location     Type
  4817 ;;		None               void
  4818 ;; Registers used:
  4819 ;;		wreg, fsr0l, fsr0h, status,2, status,0, btemp+1, pclath, cstack
  4820 ;; Tracked objects:
  4821 ;;		On entry : 0/0
  4822 ;;		On exit  : 0/0
  4823 ;;		Unchanged: 0/0
  4824 ;; Data sizes:     COMMON   BANK0   BANK1   BANK3   BANK2
  4825 ;;      Params:         2       0       0       0       0
  4826 ;;      Locals:         0       0       0       0       0
  4827 ;;      Temps:          0       0       0       0       0
  4828 ;;      Totals:         2       0       0       0       0
  4829 ;;Total ram usage:        2 bytes
  4830 ;; Hardware stack levels used:    1
  4831 ;; Hardware stack levels required when called:    3
  4832 ;; This function calls:
  4833 ;;		_lcd_write
  4834 ;; This function is called by:
  4835 ;;		_main
  4836 ;; This function uses a non-reentrant model
  4837 ;;
  4838                           psect	text601
  4839                           	file	"C:\PIC_PROGS\C\PWM\lcd.c"
  4840                           	line	59
  4841                           	global	__size_of_lcd_puts
  4842  002B                     	__size_of_lcd_puts	equ	__end_of_lcd_puts-_lcd_puts
  4843                           	
  4844  1177                     _lcd_puts:	
  4845                           	opt	stack 4
  4846                           ; Regs used in _lcd_puts: [wreg-fsr0h+status,2+status,0+btemp+1+pclath+cstack]
  4847                           	line	60
  4848                           	
  4849  1177                     l8863:	
  4850                           ;lcd.c: 60: RA2 = 1;
  4851  1177  1283               	bcf	status, 5	;RP0=0, select bank0
  4852  1178  1303               	bcf	status, 6	;RP1=0, select bank0
  4853  1179  1505               	bsf	(42/8),(42)&7
  4854                           	line	61
  4855                           ;lcd.c: 61: while(*s)
  4856  117A  2990               	goto	l8869
  4857                           	
  4858  117B                     l1907:	
  4859                           	line	62
  4860                           	
  4861  117B                     l8865:	
  4862                           ;lcd.c: 62: lcd_write(*s++);
  4863  117B  0877               	movf	(lcd_puts@s+1),w
  4864  117C  00FF               	movwf	btemp+1
  4865  117D  0876               	movf	(lcd_puts@s),w
  4866  117E  0084               	movwf	fsr0
  4867  117F  160A  118A  2000   	fcall	stringtab
              160A  118A         
  4868  1184  160A  118A  2106   	fcall	_lcd_write
              160A  118A         
  4869                           	
  4870  1189                     l8867:	
  4871  1189  3001               	movlw	low(01h)
  4872  118A  07F6               	addwf	(lcd_puts@s),f
  4873  118B  1803               	skipnc
  4874  118C  0AF7               	incf	(lcd_puts@s+1),f
  4875  118D  3000               	movlw	high(01h)
  4876  118E  07F7               	addwf	(lcd_puts@s+1),f
  4877  118F  2990               	goto	l8869
  4878                           	
  4879  1190                     l1906:	
  4880                           	line	61
  4881                           	
  4882  1190                     l8869:	
  4883  1190  0877               	movf	(lcd_puts@s+1),w
  4884  1191  1283               	bcf	status, 5	;RP0=0, select bank0
  4885  1192  1303               	bcf	status, 6	;RP1=0, select bank0
  4886  1193  00FF               	movwf	btemp+1
  4887  1194  0876               	movf	(lcd_puts@s),w
  4888  1195  0084               	movwf	fsr0
  4889  1196  160A  118A  2000   	fcall	stringtab
              160A  118A         
  4890  119B  3800               	iorlw	0
  4891  119C  1D03               	skipz
  4892  119D  299F               	goto	u4651
  4893  119E  29A0               	goto	u4650
  4894  119F                     u4651:
  4895  119F  297B               	goto	l8865
  4896  11A0                     u4650:
  4897  11A0  29A1               	goto	l1909
  4898                           	
  4899  11A1                     l1908:	
  4900                           	line	63
  4901                           	
  4902  11A1                     l1909:	
  4903  11A1  0008               	return
  4904                           	opt stack 0
  4905                           GLOBAL	__end_of_lcd_puts
  4906  11A2                     	__end_of_lcd_puts:
  4907 ;; =============== function _lcd_puts ends ============
  4908                           
  4909                           	signat	_lcd_puts,4216
  4910                           	global	_lcd_clear
  4911                           psect	text602,local,class=CODE,delta=2
  4912                           global __ptext602
  4913  10C4                     __ptext602:
  4914                           
  4915 ;; *************** function _lcd_clear *****************
  4916 ;; Defined at:
  4917 ;;		line 49 in file "C:\PIC_PROGS\C\PWM\lcd.c"
  4918 ;; Parameters:    Size  Location     Type
  4919 ;;		None
  4920 ;; Auto vars:     Size  Location     Type
  4921 ;;		None
  4922 ;; Return value:  Size  Location     Type
  4923 ;;		None               void
  4924 ;; Registers used:
  4925 ;;		wreg, status,2, status,0, pclath, cstack
  4926 ;; Tracked objects:
  4927 ;;		On entry : 0/0
  4928 ;;		On exit  : 0/0
  4929 ;;		Unchanged: 0/0
  4930 ;; Data sizes:     COMMON   BANK0   BANK1   BANK3   BANK2
  4931 ;;      Params:         0       0       0       0       0
  4932 ;;      Locals:         0       0       0       0       0
  4933 ;;      Temps:          0       0       0       0       0
  4934 ;;      Totals:         0       0       0       0       0
  4935 ;;Total ram usage:        0 bytes
  4936 ;; Hardware stack levels used:    1
  4937 ;; Hardware stack levels required when called:    3
  4938 ;; This function calls:
  4939 ;;		_lcd_write
  4940 ;;		_pause
  4941 ;; This function is called by:
  4942 ;;		_main
  4943 ;;		_lcd_init
  4944 ;; This function uses a non-reentrant model
  4945 ;;
  4946                           psect	text602
  4947                           	file	"C:\PIC_PROGS\C\PWM\lcd.c"
  4948                           	line	49
  4949                           	global	__size_of_lcd_clear
  4950  0013                     	__size_of_lcd_clear	equ	__end_of_lcd_clear-_lcd_clear
  4951                           	
  4952  10C4                     _lcd_clear:	
  4953                           	opt	stack 4
  4954                           ; Regs used in _lcd_clear: [wreg+status,2+status,0+pclath+cstack]
  4955                           	line	50
  4956                           	
  4957  10C4                     l8859:	
  4958                           ;lcd.c: 50: RA2 = 0;
  4959  10C4  1283               	bcf	status, 5	;RP0=0, select bank0
  4960  10C5  1303               	bcf	status, 6	;RP1=0, select bank0
  4961  10C6  1105               	bcf	(42/8),(42)&7
  4962                           	line	51
  4963                           	
  4964  10C7                     l8861:	
  4965                           ;lcd.c: 51: lcd_write(0x1);
  4966  10C7  3001               	movlw	(01h)
  4967  10C8  160A  118A  2106   	fcall	_lcd_write
              160A  118A         
  4968                           	line	52
  4969                           ;lcd.c: 52: pause (2);
  4970  10CD  3002               	movlw	low(02h)
  4971  10CE  00F0               	movwf	(?_pause)
  4972  10CF  3000               	movlw	high(02h)
  4973  10D0  00F1               	movwf	((?_pause))+1
  4974  10D1  120A  118A  2003   	fcall	_pause
              160A  118A         
  4975                           	line	53
  4976                           	
  4977  10D6                     l1903:	
  4978  10D6  0008               	return
  4979                           	opt stack 0
  4980                           GLOBAL	__end_of_lcd_clear
  4981  10D7                     	__end_of_lcd_clear:
  4982 ;; =============== function _lcd_clear ends ============
  4983                           
  4984                           	signat	_lcd_clear,88
  4985                           	global	___ftsub
  4986                           psect	text603,local,class=CODE,delta=2
  4987                           global __ptext603
  4988  0808                     __ptext603:
  4989                           
  4990 ;; *************** function ___ftsub *****************
  4991 ;; Defined at:
  4992 ;;		line 17 in file "C:\Program Files (x86)\HI-TECH Software\PICC\9.82\sources\ftsub.c"
  4993 ;; Parameters:    Size  Location     Type
  4994 ;;  f2              3   50[BANK0 ] float 
  4995 ;;  f1              3   53[BANK0 ] float 
  4996 ;; Auto vars:     Size  Location     Type
  4997 ;;		None
  4998 ;; Return value:  Size  Location     Type
  4999 ;;                  3   50[BANK0 ] float 
  5000 ;; Registers used:
  5001 ;;		wreg, status,2, status,0, pclath, cstack
  5002 ;; Tracked objects:
  5003 ;;		On entry : 0/0
  5004 ;;		On exit  : 0/0
  5005 ;;		Unchanged: 0/0
  5006 ;; Data sizes:     COMMON   BANK0   BANK1   BANK3   BANK2
  5007 ;;      Params:         0       6       0       0       0
  5008 ;;      Locals:         0       0       0       0       0
  5009 ;;      Temps:          0       0       0       0       0
  5010 ;;      Totals:         0       6       0       0       0
  5011 ;;Total ram usage:        6 bytes
  5012 ;; Hardware stack levels used:    1
  5013 ;; Hardware stack levels required when called:    2
  5014 ;; This function calls:
  5015 ;;		___ftadd
  5016 ;; This function is called by:
  5017 ;;		_sprintf
  5018 ;; This function uses a non-reentrant model
  5019 ;;
  5020                           psect	text603
  5021                           	file	"C:\Program Files (x86)\HI-TECH Software\PICC\9.82\sources\ftsub.c"
  5022                           	line	17
  5023                           	global	__size_of___ftsub
  5024  001F                     	__size_of___ftsub	equ	__end_of___ftsub-___ftsub
  5025                           	
  5026  0808                     ___ftsub:	
  5027                           	opt	stack 4
  5028                           ; Regs used in ___ftsub: [wreg+status,2+status,0+pclath+cstack]
  5029                           	line	18
  5030                           	
  5031  0808                     l8853:	
  5032  0808  3080               	movlw	080h
  5033  0809  1283               	bcf	status, 5	;RP0=0, select bank0
  5034  080A  1303               	bcf	status, 6	;RP1=0, select bank0
  5035  080B  06D4               	xorwf	(___ftsub@f2+2),f
  5036                           	line	19
  5037                           	
  5038  080C                     l8855:	
  5039  080C  0855               	movf	(___ftsub@f1),w
  5040  080D  00C5               	movwf	(?___ftadd)
  5041  080E  0856               	movf	(___ftsub@f1+1),w
  5042  080F  00C6               	movwf	(?___ftadd+1)
  5043  0810  0857               	movf	(___ftsub@f1+2),w
  5044  0811  00C7               	movwf	(?___ftadd+2)
  5045  0812  0852               	movf	(___ftsub@f2),w
  5046  0813  00C8               	movwf	0+(?___ftadd)+03h
  5047  0814  0853               	movf	(___ftsub@f2+1),w
  5048  0815  00C9               	movwf	1+(?___ftadd)+03h
  5049  0816  0854               	movf	(___ftsub@f2+2),w
  5050  0817  00CA               	movwf	2+(?___ftadd)+03h
  5051  0818  160A  118A  2566   	fcall	___ftadd
              120A  158A         
  5052  081D  1283               	bcf	status, 5	;RP0=0, select bank0
  5053  081E  1303               	bcf	status, 6	;RP1=0, select bank0
  5054  081F  0845               	movf	(0+(?___ftadd)),w
  5055  0820  00D2               	movwf	(?___ftsub)
  5056  0821  0846               	movf	(1+(?___ftadd)),w
  5057  0822  00D3               	movwf	(?___ftsub+1)
  5058  0823  0847               	movf	(2+(?___ftadd)),w
  5059  0824  00D4               	movwf	(?___ftsub+2)
  5060  0825  2826               	goto	l5150
  5061                           	
  5062  0826                     l8857:	
  5063                           	line	20
  5064                           	
  5065  0826                     l5150:	
  5066  0826  0008               	return
  5067                           	opt stack 0
  5068                           GLOBAL	__end_of___ftsub
  5069  0827                     	__end_of___ftsub:
  5070 ;; =============== function ___ftsub ends ============
  5071                           
  5072                           	signat	___ftsub,8315
  5073                           	global	_scale
  5074                           psect	text604,local,class=CODE,delta=2
  5075                           global __ptext604
  5076  0D41                     __ptext604:
  5077                           
  5078 ;; *************** function _scale *****************
  5079 ;; Defined at:
  5080 ;;		line 422 in file "C:\Program Files (x86)\HI-TECH Software\PICC\9.82\lib\doprnt.c"
  5081 ;; Parameters:    Size  Location     Type
  5082 ;;  scl             1    wreg     char 
  5083 ;; Auto vars:     Size  Location     Type
  5084 ;;  scl             1   45[BANK0 ] char 
  5085 ;; Return value:  Size  Location     Type
  5086 ;;                  3   37[BANK0 ] char 
  5087 ;; Registers used:
  5088 ;;		wreg, fsr0l, fsr0h, status,2, status,0, pclath, cstack
  5089 ;; Tracked objects:
  5090 ;;		On entry : 0/0
  5091 ;;		On exit  : 0/0
  5092 ;;		Unchanged: 0/0
  5093 ;; Data sizes:     COMMON   BANK0   BANK1   BANK3   BANK2
  5094 ;;      Params:         0       3       0       0       0
  5095 ;;      Locals:         0       4       0       0       0
  5096 ;;      Temps:          0       2       0       0       0
  5097 ;;      Totals:         0       9       0       0       0
  5098 ;;Total ram usage:        9 bytes
  5099 ;; Hardware stack levels used:    1
  5100 ;; Hardware stack levels required when called:    2
  5101 ;; This function calls:
  5102 ;;		___awmod
  5103 ;;		___bmul
  5104 ;;		___awdiv
  5105 ;;		___ftmul
  5106 ;; This function is called by:
  5107 ;;		_sprintf
  5108 ;; This function uses a non-reentrant model
  5109 ;;
  5110                           psect	text604
  5111                           	file	"C:\Program Files (x86)\HI-TECH Software\PICC\9.82\sources\doprnt.c"
  5112                           	line	422
  5113                           	global	__size_of_scale
  5114  02BF                     	__size_of_scale	equ	__end_of_scale-_scale
  5115                           	
  5116  0D41                     _scale:	
  5117                           	opt	stack 4
  5118                           ; Regs used in _scale: [wreg-fsr0h+status,2+status,0+pclath+cstack]
  5119                           ;scale@scl stored from wreg
  5120                           	line	424
  5121  0D41  1283               	bcf	status, 5	;RP0=0, select bank0
  5122  0D42  1303               	bcf	status, 6	;RP1=0, select bank0
  5123  0D43  00CD               	movwf	(scale@scl)
  5124                           	
  5125  0D44                     l8813:	
  5126  0D44  1FCD               	btfss	(scale@scl),7
  5127  0D45  2D47               	goto	u4601
  5128  0D46  2D48               	goto	u4600
  5129  0D47                     u4601:
  5130  0D47  2EA5               	goto	l8835
  5131  0D48                     u4600:
  5132                           	line	425
  5133                           	
  5134  0D48                     l8815:	
  5135  0D48  09CD               	comf	(scale@scl),f
  5136  0D49  0ACD               	incf	(scale@scl),f
  5137                           	line	426
  5138                           	
  5139  0D4A                     l8817:	
  5140  0D4A  084D               	movf	(scale@scl),w
  5141  0D4B  3A80               	xorlw	80h
  5142  0D4C  3E12               	addlw	-((06Eh)^80h)
  5143  0D4D  1C03               	skipc
  5144  0D4E  2D50               	goto	u4611
  5145  0D4F  2D51               	goto	u4610
  5146  0D50                     u4611:
  5147  0D50  2E0F               	goto	l8825
  5148  0D51                     u4610:
  5149                           	line	427
  5150                           	
  5151  0D51                     l8819:	
  5152  0D51  3003               	movlw	(03h)
  5153  0D52  00C8               	movwf	(??_scale+0)+0
  5154  0D53  0848               	movf	(??_scale+0)+0,w
  5155  0D54  00A4               	movwf	(?___bmul)
  5156  0D55  300A               	movlw	low(0Ah)
  5157  0D56  00F7               	movwf	(?___awdiv)
  5158  0D57  3000               	movlw	high(0Ah)
  5159  0D58  00F8               	movwf	((?___awdiv))+1
  5160  0D59  084D               	movf	(scale@scl),w
  5161  0D5A  00F2               	movwf	0+(?___awmod)+02h
  5162  0D5B  01F3               	clrf	1+(?___awmod)+02h
  5163  0D5C  1BF2               	btfsc	0+(?___awmod)+02h,7
  5164  0D5D  03F3               	decf	1+(?___awmod)+02h,f
  5165  0D5E  3064               	movlw	low(064h)
  5166  0D5F  00F0               	movwf	(?___awmod)
  5167  0D60  3000               	movlw	high(064h)
  5168  0D61  00F1               	movwf	((?___awmod))+1
  5169  0D62  160A  118A  228F   	fcall	___awmod
              120A  158A         
  5170  0D67  0871               	movf	(1+(?___awmod)),w
  5171  0D68  01FA               	clrf	1+(?___awdiv)+02h
  5172  0D69  07FA               	addwf	1+(?___awdiv)+02h
  5173  0D6A  0870               	movf	(0+(?___awmod)),w
  5174  0D6B  01F9               	clrf	0+(?___awdiv)+02h
  5175  0D6C  07F9               	addwf	0+(?___awdiv)+02h
  5176                           
  5177  0D6D  160A  118A  23CF   	fcall	___awdiv
              120A  158A         
  5178  0D72  0877               	movf	(0+(?___awdiv)),w
  5179  0D73  3E09               	addlw	09h
  5180  0D74  160A  118A  20EC   	fcall	___bmul
              120A  158A         
  5181  0D79  3E29               	addlw	low((__npowers_-__stringbase))
  5182  0D7A  0084               	movwf	fsr0
  5183  0D7B  160A  118A  200A   	fcall	stringdir
              120A  158A         
  5184  0D80  1283               	bcf	status, 5	;RP0=0, select bank0
  5185  0D81  1303               	bcf	status, 6	;RP1=0, select bank0
  5186  0D82  00B5               	movwf	(?___ftmul)
  5187  0D83  160A  118A  200A   	fcall	stringdir
              120A  158A         
  5188  0D88  00B6               	movwf	(?___ftmul+1)
  5189  0D89  160A  118A  200A   	fcall	stringdir
              120A  158A         
  5190  0D8E  00B7               	movwf	(?___ftmul+2)
  5191  0D8F  3003               	movlw	(03h)
  5192  0D90  00C9               	movwf	(??_scale+1)+0
  5193  0D91  0849               	movf	(??_scale+1)+0,w
  5194  0D92  00A4               	movwf	(?___bmul)
  5195  0D93  3064               	movlw	low(064h)
  5196  0D94  00F7               	movwf	(?___awdiv)
  5197  0D95  3000               	movlw	high(064h)
  5198  0D96  00F8               	movwf	((?___awdiv))+1
  5199  0D97  084D               	movf	(scale@scl),w
  5200  0D98  00F9               	movwf	0+(?___awdiv)+02h
  5201  0D99  01FA               	clrf	1+(?___awdiv)+02h
  5202  0D9A  1BF9               	btfsc	0+(?___awdiv)+02h,7
  5203  0D9B  03FA               	decf	1+(?___awdiv)+02h,f
  5204  0D9C  160A  118A  23CF   	fcall	___awdiv
              120A  158A         
  5205  0DA1  0877               	movf	(0+(?___awdiv)),w
  5206  0DA2  3E12               	addlw	012h
  5207  0DA3  160A  118A  20EC   	fcall	___bmul
              120A  158A         
  5208  0DA8  3E29               	addlw	low((__npowers_-__stringbase))
  5209  0DA9  0084               	movwf	fsr0
  5210  0DAA  160A  118A  200A   	fcall	stringdir
              120A  158A         
  5211  0DAF  1283               	bcf	status, 5	;RP0=0, select bank0
  5212  0DB0  1303               	bcf	status, 6	;RP1=0, select bank0
  5213  0DB1  00B8               	movwf	0+(?___ftmul)+03h
  5214  0DB2  160A  118A  200A   	fcall	stringdir
              120A  158A         
  5215  0DB7  00B9               	movwf	1+(?___ftmul)+03h
  5216  0DB8  160A  118A  200A   	fcall	stringdir
              120A  158A         
  5217  0DBD  00BA               	movwf	2+(?___ftmul)+03h
  5218  0DBE  120A  118A  201E   	fcall	___ftmul
              120A  158A         
  5219  0DC3  1283               	bcf	status, 5	;RP0=0, select bank0
  5220  0DC4  1303               	bcf	status, 6	;RP1=0, select bank0
  5221  0DC5  0835               	movf	(0+(?___ftmul)),w
  5222  0DC6  00CA               	movwf	(_scale$5663)
  5223  0DC7  0836               	movf	(1+(?___ftmul)),w
  5224  0DC8  00CB               	movwf	(_scale$5663+1)
  5225  0DC9  0837               	movf	(2+(?___ftmul)),w
  5226  0DCA  00CC               	movwf	(_scale$5663+2)
  5227  0DCB  3003               	movlw	(03h)
  5228  0DCC  00C8               	movwf	(??_scale+0)+0
  5229  0DCD  0848               	movf	(??_scale+0)+0,w
  5230  0DCE  00A4               	movwf	(?___bmul)
  5231  0DCF  084D               	movf	(scale@scl),w
  5232  0DD0  00F2               	movwf	0+(?___awmod)+02h
  5233  0DD1  01F3               	clrf	1+(?___awmod)+02h
  5234  0DD2  1BF2               	btfsc	0+(?___awmod)+02h,7
  5235  0DD3  03F3               	decf	1+(?___awmod)+02h,f
  5236  0DD4  300A               	movlw	low(0Ah)
  5237  0DD5  00F0               	movwf	(?___awmod)
  5238  0DD6  3000               	movlw	high(0Ah)
  5239  0DD7  00F1               	movwf	((?___awmod))+1
  5240  0DD8  160A  118A  228F   	fcall	___awmod
              120A  158A         
  5241  0DDD  0870               	movf	(0+(?___awmod)),w
  5242  0DDE  160A  118A  20EC   	fcall	___bmul
              120A  158A         
  5243  0DE3  3E29               	addlw	low((__npowers_-__stringbase))
  5244  0DE4  0084               	movwf	fsr0
  5245  0DE5  160A  118A  200A   	fcall	stringdir
              120A  158A         
  5246  0DEA  1283               	bcf	status, 5	;RP0=0, select bank0
  5247  0DEB  1303               	bcf	status, 6	;RP1=0, select bank0
  5248  0DEC  00B5               	movwf	(?___ftmul)
  5249  0DED  160A  118A  200A   	fcall	stringdir
              120A  158A         
  5250  0DF2  00B6               	movwf	(?___ftmul+1)
  5251  0DF3  160A  118A  200A   	fcall	stringdir
              120A  158A         
  5252  0DF8  00B7               	movwf	(?___ftmul+2)
  5253  0DF9  084A               	movf	(_scale$5663),w
  5254  0DFA  00B8               	movwf	0+(?___ftmul)+03h
  5255  0DFB  084B               	movf	(_scale$5663+1),w
  5256  0DFC  00B9               	movwf	1+(?___ftmul)+03h
  5257  0DFD  084C               	movf	(_scale$5663+2),w
  5258  0DFE  00BA               	movwf	2+(?___ftmul)+03h
  5259  0DFF  120A  118A  201E   	fcall	___ftmul
              120A  158A         
  5260  0E04  1283               	bcf	status, 5	;RP0=0, select bank0
  5261  0E05  1303               	bcf	status, 6	;RP1=0, select bank0
  5262  0E06  0835               	movf	(0+(?___ftmul)),w
  5263  0E07  00C5               	movwf	(?_scale)
  5264  0E08  0836               	movf	(1+(?___ftmul)),w
  5265  0E09  00C6               	movwf	(?_scale+1)
  5266  0E0A  0837               	movf	(2+(?___ftmul)),w
  5267  0E0B  00C7               	movwf	(?_scale+2)
  5268  0E0C  2FFF               	goto	l4003
  5269                           	
  5270  0E0D                     l8821:	
  5271  0E0D  2FFF               	goto	l4003
  5272                           	
  5273  0E0E                     l8823:	
  5274  0E0E  2E83               	goto	l8831
  5275                           	line	428
  5276                           	
  5277  0E0F                     l4002:	
  5278                           	
  5279  0E0F                     l8825:	
  5280  0E0F  084D               	movf	(scale@scl),w
  5281  0E10  3A80               	xorlw	80h
  5282  0E11  3E75               	addlw	-((0Bh)^80h)
  5283  0E12  1C03               	skipc
  5284  0E13  2E15               	goto	u4621
  5285  0E14  2E16               	goto	u4620
  5286  0E15                     u4621:
  5287  0E15  2E83               	goto	l8831
  5288  0E16                     u4620:
  5289                           	line	429
  5290                           	
  5291  0E16                     l8827:	
  5292  0E16  3003               	movlw	(03h)
  5293  0E17  00C8               	movwf	(??_scale+0)+0
  5294  0E18  0848               	movf	(??_scale+0)+0,w
  5295  0E19  00A4               	movwf	(?___bmul)
  5296  0E1A  084D               	movf	(scale@scl),w
  5297  0E1B  00F2               	movwf	0+(?___awmod)+02h
  5298  0E1C  01F3               	clrf	1+(?___awmod)+02h
  5299  0E1D  1BF2               	btfsc	0+(?___awmod)+02h,7
  5300  0E1E  03F3               	decf	1+(?___awmod)+02h,f
  5301  0E1F  300A               	movlw	low(0Ah)
  5302  0E20  00F0               	movwf	(?___awmod)
  5303  0E21  3000               	movlw	high(0Ah)
  5304  0E22  00F1               	movwf	((?___awmod))+1
  5305  0E23  160A  118A  228F   	fcall	___awmod
              120A  158A         
  5306  0E28  0870               	movf	(0+(?___awmod)),w
  5307  0E29  160A  118A  20EC   	fcall	___bmul
              120A  158A         
  5308  0E2E  3E29               	addlw	low((__npowers_-__stringbase))
  5309  0E2F  0084               	movwf	fsr0
  5310  0E30  160A  118A  200A   	fcall	stringdir
              120A  158A         
  5311  0E35  1283               	bcf	status, 5	;RP0=0, select bank0
  5312  0E36  1303               	bcf	status, 6	;RP1=0, select bank0
  5313  0E37  00B5               	movwf	(?___ftmul)
  5314  0E38  160A  118A  200A   	fcall	stringdir
              120A  158A         
  5315  0E3D  00B6               	movwf	(?___ftmul+1)
  5316  0E3E  160A  118A  200A   	fcall	stringdir
              120A  158A         
  5317  0E43  00B7               	movwf	(?___ftmul+2)
  5318  0E44  3003               	movlw	(03h)
  5319  0E45  00C9               	movwf	(??_scale+1)+0
  5320  0E46  0849               	movf	(??_scale+1)+0,w
  5321  0E47  00A4               	movwf	(?___bmul)
  5322  0E48  300A               	movlw	low(0Ah)
  5323  0E49  00F7               	movwf	(?___awdiv)
  5324  0E4A  3000               	movlw	high(0Ah)
  5325  0E4B  00F8               	movwf	((?___awdiv))+1
  5326  0E4C  084D               	movf	(scale@scl),w
  5327  0E4D  00F9               	movwf	0+(?___awdiv)+02h
  5328  0E4E  01FA               	clrf	1+(?___awdiv)+02h
  5329  0E4F  1BF9               	btfsc	0+(?___awdiv)+02h,7
  5330  0E50  03FA               	decf	1+(?___awdiv)+02h,f
  5331  0E51  160A  118A  23CF   	fcall	___awdiv
              120A  158A         
  5332  0E56  0877               	movf	(0+(?___awdiv)),w
  5333  0E57  3E09               	addlw	09h
  5334  0E58  160A  118A  20EC   	fcall	___bmul
              120A  158A         
  5335  0E5D  3E29               	addlw	low((__npowers_-__stringbase))
  5336  0E5E  0084               	movwf	fsr0
  5337  0E5F  160A  118A  200A   	fcall	stringdir
              120A  158A         
  5338  0E64  1283               	bcf	status, 5	;RP0=0, select bank0
  5339  0E65  1303               	bcf	status, 6	;RP1=0, select bank0
  5340  0E66  00B8               	movwf	0+(?___ftmul)+03h
  5341  0E67  160A  118A  200A   	fcall	stringdir
              120A  158A         
  5342  0E6C  00B9               	movwf	1+(?___ftmul)+03h
  5343  0E6D  160A  118A  200A   	fcall	stringdir
              120A  158A         
  5344  0E72  00BA               	movwf	2+(?___ftmul)+03h
  5345  0E73  120A  118A  201E   	fcall	___ftmul
              120A  158A         
  5346  0E78  1283               	bcf	status, 5	;RP0=0, select bank0
  5347  0E79  1303               	bcf	status, 6	;RP1=0, select bank0
  5348  0E7A  0835               	movf	(0+(?___ftmul)),w
  5349  0E7B  00C5               	movwf	(?_scale)
  5350  0E7C  0836               	movf	(1+(?___ftmul)),w
  5351  0E7D  00C6               	movwf	(?_scale+1)
  5352  0E7E  0837               	movf	(2+(?___ftmul)),w
  5353  0E7F  00C7               	movwf	(?_scale+2)
  5354  0E80  2FFF               	goto	l4003
  5355                           	
  5356  0E81                     l8829:	
  5357  0E81  2FFF               	goto	l4003
  5358                           	
  5359  0E82                     l4005:	
  5360  0E82  2E83               	goto	l8831
  5361                           	line	430
  5362                           	
  5363  0E83                     l4004:	
  5364                           	
  5365  0E83                     l8831:	
  5366  0E83  3003               	movlw	(03h)
  5367  0E84  00C8               	movwf	(??_scale+0)+0
  5368  0E85  0848               	movf	(??_scale+0)+0,w
  5369  0E86  00A4               	movwf	(?___bmul)
  5370  0E87  084D               	movf	(scale@scl),w
  5371  0E88  160A  118A  20EC   	fcall	___bmul
              120A  158A         
  5372  0E8D  3E29               	addlw	low((__npowers_-__stringbase))
  5373  0E8E  0084               	movwf	fsr0
  5374  0E8F  160A  118A  200A   	fcall	stringdir
              120A  158A         
  5375  0E94  1283               	bcf	status, 5	;RP0=0, select bank0
  5376  0E95  1303               	bcf	status, 6	;RP1=0, select bank0
  5377  0E96  00C5               	movwf	(?_scale)
  5378  0E97  160A  118A  200A   	fcall	stringdir
              120A  158A         
  5379  0E9C  00C6               	movwf	(?_scale+1)
  5380  0E9D  160A  118A  200A   	fcall	stringdir
              120A  158A         
  5381  0EA2  00C7               	movwf	(?_scale+2)
  5382  0EA3  2FFF               	goto	l4003
  5383                           	
  5384  0EA4                     l8833:	
  5385  0EA4  2FFF               	goto	l4003
  5386                           	line	431
  5387                           	
  5388  0EA5                     l4001:	
  5389                           	line	432
  5390                           	
  5391  0EA5                     l8835:	
  5392  0EA5  084D               	movf	(scale@scl),w
  5393  0EA6  3A80               	xorlw	80h
  5394  0EA7  3E12               	addlw	-((06Eh)^80h)
  5395  0EA8  1C03               	skipc
  5396  0EA9  2EAB               	goto	u4631
  5397  0EAA  2EAC               	goto	u4630
  5398  0EAB                     u4631:
  5399  0EAB  2F6A               	goto	l8843
  5400  0EAC                     u4630:
  5401                           	line	433
  5402                           	
  5403  0EAC                     l8837:	
  5404  0EAC  3003               	movlw	(03h)
  5405  0EAD  00C8               	movwf	(??_scale+0)+0
  5406  0EAE  0848               	movf	(??_scale+0)+0,w
  5407  0EAF  00A4               	movwf	(?___bmul)
  5408  0EB0  300A               	movlw	low(0Ah)
  5409  0EB1  00F7               	movwf	(?___awdiv)
  5410  0EB2  3000               	movlw	high(0Ah)
  5411  0EB3  00F8               	movwf	((?___awdiv))+1
  5412  0EB4  084D               	movf	(scale@scl),w
  5413  0EB5  00F2               	movwf	0+(?___awmod)+02h
  5414  0EB6  01F3               	clrf	1+(?___awmod)+02h
  5415  0EB7  1BF2               	btfsc	0+(?___awmod)+02h,7
  5416  0EB8  03F3               	decf	1+(?___awmod)+02h,f
  5417  0EB9  3064               	movlw	low(064h)
  5418  0EBA  00F0               	movwf	(?___awmod)
  5419  0EBB  3000               	movlw	high(064h)
  5420  0EBC  00F1               	movwf	((?___awmod))+1
  5421  0EBD  160A  118A  228F   	fcall	___awmod
              120A  158A         
  5422  0EC2  0871               	movf	(1+(?___awmod)),w
  5423  0EC3  01FA               	clrf	1+(?___awdiv)+02h
  5424  0EC4  07FA               	addwf	1+(?___awdiv)+02h
  5425  0EC5  0870               	movf	(0+(?___awmod)),w
  5426  0EC6  01F9               	clrf	0+(?___awdiv)+02h
  5427  0EC7  07F9               	addwf	0+(?___awdiv)+02h
  5428                           
  5429  0EC8  160A  118A  23CF   	fcall	___awdiv
              120A  158A         
  5430  0ECD  0877               	movf	(0+(?___awdiv)),w
  5431  0ECE  3E09               	addlw	09h
  5432  0ECF  160A  118A  20EC   	fcall	___bmul
              120A  158A         
  5433  0ED4  3E50               	addlw	low((__powers_-__stringbase))
  5434  0ED5  0084               	movwf	fsr0
  5435  0ED6  160A  118A  200A   	fcall	stringdir
              120A  158A         
  5436  0EDB  1283               	bcf	status, 5	;RP0=0, select bank0
  5437  0EDC  1303               	bcf	status, 6	;RP1=0, select bank0
  5438  0EDD  00B5               	movwf	(?___ftmul)
  5439  0EDE  160A  118A  200A   	fcall	stringdir
              120A  158A         
  5440  0EE3  00B6               	movwf	(?___ftmul+1)
  5441  0EE4  160A  118A  200A   	fcall	stringdir
              120A  158A         
  5442  0EE9  00B7               	movwf	(?___ftmul+2)
  5443  0EEA  3003               	movlw	(03h)
  5444  0EEB  00C9               	movwf	(??_scale+1)+0
  5445  0EEC  0849               	movf	(??_scale+1)+0,w
  5446  0EED  00A4               	movwf	(?___bmul)
  5447  0EEE  3064               	movlw	low(064h)
  5448  0EEF  00F7               	movwf	(?___awdiv)
  5449  0EF0  3000               	movlw	high(064h)
  5450  0EF1  00F8               	movwf	((?___awdiv))+1
  5451  0EF2  084D               	movf	(scale@scl),w
  5452  0EF3  00F9               	movwf	0+(?___awdiv)+02h
  5453  0EF4  01FA               	clrf	1+(?___awdiv)+02h
  5454  0EF5  1BF9               	btfsc	0+(?___awdiv)+02h,7
  5455  0EF6  03FA               	decf	1+(?___awdiv)+02h,f
  5456  0EF7  160A  118A  23CF   	fcall	___awdiv
              120A  158A         
  5457  0EFC  0877               	movf	(0+(?___awdiv)),w
  5458  0EFD  3E12               	addlw	012h
  5459  0EFE  160A  118A  20EC   	fcall	___bmul
              120A  158A         
  5460  0F03  3E50               	addlw	low((__powers_-__stringbase))
  5461  0F04  0084               	movwf	fsr0
  5462  0F05  160A  118A  200A   	fcall	stringdir
              120A  158A         
  5463  0F0A  1283               	bcf	status, 5	;RP0=0, select bank0
  5464  0F0B  1303               	bcf	status, 6	;RP1=0, select bank0
  5465  0F0C  00B8               	movwf	0+(?___ftmul)+03h
  5466  0F0D  160A  118A  200A   	fcall	stringdir
              120A  158A         
  5467  0F12  00B9               	movwf	1+(?___ftmul)+03h
  5468  0F13  160A  118A  200A   	fcall	stringdir
              120A  158A         
  5469  0F18  00BA               	movwf	2+(?___ftmul)+03h
  5470  0F19  120A  118A  201E   	fcall	___ftmul
              120A  158A         
  5471  0F1E  1283               	bcf	status, 5	;RP0=0, select bank0
  5472  0F1F  1303               	bcf	status, 6	;RP1=0, select bank0
  5473  0F20  0835               	movf	(0+(?___ftmul)),w
  5474  0F21  00CA               	movwf	(_scale$5663)
  5475  0F22  0836               	movf	(1+(?___ftmul)),w
  5476  0F23  00CB               	movwf	(_scale$5663+1)
  5477  0F24  0837               	movf	(2+(?___ftmul)),w
  5478  0F25  00CC               	movwf	(_scale$5663+2)
  5479  0F26  3003               	movlw	(03h)
  5480  0F27  00C8               	movwf	(??_scale+0)+0
  5481  0F28  0848               	movf	(??_scale+0)+0,w
  5482  0F29  00A4               	movwf	(?___bmul)
  5483  0F2A  084D               	movf	(scale@scl),w
  5484  0F2B  00F2               	movwf	0+(?___awmod)+02h
  5485  0F2C  01F3               	clrf	1+(?___awmod)+02h
  5486  0F2D  1BF2               	btfsc	0+(?___awmod)+02h,7
  5487  0F2E  03F3               	decf	1+(?___awmod)+02h,f
  5488  0F2F  300A               	movlw	low(0Ah)
  5489  0F30  00F0               	movwf	(?___awmod)
  5490  0F31  3000               	movlw	high(0Ah)
  5491  0F32  00F1               	movwf	((?___awmod))+1
  5492  0F33  160A  118A  228F   	fcall	___awmod
              120A  158A         
  5493  0F38  0870               	movf	(0+(?___awmod)),w
  5494  0F39  160A  118A  20EC   	fcall	___bmul
              120A  158A         
  5495  0F3E  3E50               	addlw	low((__powers_-__stringbase))
  5496  0F3F  0084               	movwf	fsr0
  5497  0F40  160A  118A  200A   	fcall	stringdir
              120A  158A         
  5498  0F45  1283               	bcf	status, 5	;RP0=0, select bank0
  5499  0F46  1303               	bcf	status, 6	;RP1=0, select bank0
  5500  0F47  00B5               	movwf	(?___ftmul)
  5501  0F48  160A  118A  200A   	fcall	stringdir
              120A  158A         
  5502  0F4D  00B6               	movwf	(?___ftmul+1)
  5503  0F4E  160A  118A  200A   	fcall	stringdir
              120A  158A         
  5504  0F53  00B7               	movwf	(?___ftmul+2)
  5505  0F54  084A               	movf	(_scale$5663),w
  5506  0F55  00B8               	movwf	0+(?___ftmul)+03h
  5507  0F56  084B               	movf	(_scale$5663+1),w
  5508  0F57  00B9               	movwf	1+(?___ftmul)+03h
  5509  0F58  084C               	movf	(_scale$5663+2),w
  5510  0F59  00BA               	movwf	2+(?___ftmul)+03h
  5511  0F5A  120A  118A  201E   	fcall	___ftmul
              120A  158A         
  5512  0F5F  1283               	bcf	status, 5	;RP0=0, select bank0
  5513  0F60  1303               	bcf	status, 6	;RP1=0, select bank0
  5514  0F61  0835               	movf	(0+(?___ftmul)),w
  5515  0F62  00C5               	movwf	(?_scale)
  5516  0F63  0836               	movf	(1+(?___ftmul)),w
  5517  0F64  00C6               	movwf	(?_scale+1)
  5518  0F65  0837               	movf	(2+(?___ftmul)),w
  5519  0F66  00C7               	movwf	(?_scale+2)
  5520  0F67  2FFF               	goto	l4003
  5521                           	
  5522  0F68                     l8839:	
  5523  0F68  2FFF               	goto	l4003
  5524                           	
  5525  0F69                     l8841:	
  5526  0F69  2FDE               	goto	l8849
  5527                           	line	434
  5528                           	
  5529  0F6A                     l4006:	
  5530                           	
  5531  0F6A                     l8843:	
  5532  0F6A  084D               	movf	(scale@scl),w
  5533  0F6B  3A80               	xorlw	80h
  5534  0F6C  3E75               	addlw	-((0Bh)^80h)
  5535  0F6D  1C03               	skipc
  5536  0F6E  2F70               	goto	u4641
  5537  0F6F  2F71               	goto	u4640
  5538  0F70                     u4641:
  5539  0F70  2FDE               	goto	l8849
  5540  0F71                     u4640:
  5541                           	line	435
  5542                           	
  5543  0F71                     l8845:	
  5544  0F71  3003               	movlw	(03h)
  5545  0F72  00C8               	movwf	(??_scale+0)+0
  5546  0F73  0848               	movf	(??_scale+0)+0,w
  5547  0F74  00A4               	movwf	(?___bmul)
  5548  0F75  084D               	movf	(scale@scl),w
  5549  0F76  00F2               	movwf	0+(?___awmod)+02h
  5550  0F77  01F3               	clrf	1+(?___awmod)+02h
  5551  0F78  1BF2               	btfsc	0+(?___awmod)+02h,7
  5552  0F79  03F3               	decf	1+(?___awmod)+02h,f
  5553  0F7A  300A               	movlw	low(0Ah)
  5554  0F7B  00F0               	movwf	(?___awmod)
  5555  0F7C  3000               	movlw	high(0Ah)
  5556  0F7D  00F1               	movwf	((?___awmod))+1
  5557  0F7E  160A  118A  228F   	fcall	___awmod
              120A  158A         
  5558  0F83  0870               	movf	(0+(?___awmod)),w
  5559  0F84  160A  118A  20EC   	fcall	___bmul
              120A  158A         
  5560  0F89  3E50               	addlw	low((__powers_-__stringbase))
  5561  0F8A  0084               	movwf	fsr0
  5562  0F8B  160A  118A  200A   	fcall	stringdir
              120A  158A         
  5563  0F90  1283               	bcf	status, 5	;RP0=0, select bank0
  5564  0F91  1303               	bcf	status, 6	;RP1=0, select bank0
  5565  0F92  00B5               	movwf	(?___ftmul)
  5566  0F93  160A  118A  200A   	fcall	stringdir
              120A  158A         
  5567  0F98  00B6               	movwf	(?___ftmul+1)
  5568  0F99  160A  118A  200A   	fcall	stringdir
              120A  158A         
  5569  0F9E  00B7               	movwf	(?___ftmul+2)
  5570  0F9F  3003               	movlw	(03h)
  5571  0FA0  00C9               	movwf	(??_scale+1)+0
  5572  0FA1  0849               	movf	(??_scale+1)+0,w
  5573  0FA2  00A4               	movwf	(?___bmul)
  5574  0FA3  300A               	movlw	low(0Ah)
  5575  0FA4  00F7               	movwf	(?___awdiv)
  5576  0FA5  3000               	movlw	high(0Ah)
  5577  0FA6  00F8               	movwf	((?___awdiv))+1
  5578  0FA7  084D               	movf	(scale@scl),w
  5579  0FA8  00F9               	movwf	0+(?___awdiv)+02h
  5580  0FA9  01FA               	clrf	1+(?___awdiv)+02h
  5581  0FAA  1BF9               	btfsc	0+(?___awdiv)+02h,7
  5582  0FAB  03FA               	decf	1+(?___awdiv)+02h,f
  5583  0FAC  160A  118A  23CF   	fcall	___awdiv
              120A  158A         
  5584  0FB1  0877               	movf	(0+(?___awdiv)),w
  5585  0FB2  3E09               	addlw	09h
  5586  0FB3  160A  118A  20EC   	fcall	___bmul
              120A  158A         
  5587  0FB8  3E50               	addlw	low((__powers_-__stringbase))
  5588  0FB9  0084               	movwf	fsr0
  5589  0FBA  160A  118A  200A   	fcall	stringdir
              120A  158A         
  5590  0FBF  1283               	bcf	status, 5	;RP0=0, select bank0
  5591  0FC0  1303               	bcf	status, 6	;RP1=0, select bank0
  5592  0FC1  00B8               	movwf	0+(?___ftmul)+03h
  5593  0FC2  160A  118A  200A   	fcall	stringdir
              120A  158A         
  5594  0FC7  00B9               	movwf	1+(?___ftmul)+03h
  5595  0FC8  160A  118A  200A   	fcall	stringdir
              120A  158A         
  5596  0FCD  00BA               	movwf	2+(?___ftmul)+03h
  5597  0FCE  120A  118A  201E   	fcall	___ftmul
              120A  158A         
  5598  0FD3  1283               	bcf	status, 5	;RP0=0, select bank0
  5599  0FD4  1303               	bcf	status, 6	;RP1=0, select bank0
  5600  0FD5  0835               	movf	(0+(?___ftmul)),w
  5601  0FD6  00C5               	movwf	(?_scale)
  5602  0FD7  0836               	movf	(1+(?___ftmul)),w
  5603  0FD8  00C6               	movwf	(?_scale+1)
  5604  0FD9  0837               	movf	(2+(?___ftmul)),w
  5605  0FDA  00C7               	movwf	(?_scale+2)
  5606  0FDB  2FFF               	goto	l4003
  5607                           	
  5608  0FDC                     l8847:	
  5609  0FDC  2FFF               	goto	l4003
  5610                           	
  5611  0FDD                     l4008:	
  5612  0FDD  2FDE               	goto	l8849
  5613                           	line	436
  5614                           	
  5615  0FDE                     l4007:	
  5616                           	
  5617  0FDE                     l8849:	
  5618  0FDE  3003               	movlw	(03h)
  5619  0FDF  00C8               	movwf	(??_scale+0)+0
  5620  0FE0  0848               	movf	(??_scale+0)+0,w
  5621  0FE1  00A4               	movwf	(?___bmul)
  5622  0FE2  084D               	movf	(scale@scl),w
  5623  0FE3  160A  118A  20EC   	fcall	___bmul
              120A  158A         
  5624  0FE8  3E50               	addlw	low((__powers_-__stringbase))
  5625  0FE9  0084               	movwf	fsr0
  5626  0FEA  160A  118A  200A   	fcall	stringdir
              120A  158A         
  5627  0FEF  1283               	bcf	status, 5	;RP0=0, select bank0
  5628  0FF0  1303               	bcf	status, 6	;RP1=0, select bank0
  5629  0FF1  00C5               	movwf	(?_scale)
  5630  0FF2  160A  118A  200A   	fcall	stringdir
              120A  158A         
  5631  0FF7  00C6               	movwf	(?_scale+1)
  5632  0FF8  160A  118A  200A   	fcall	stringdir
              120A  158A         
  5633  0FFD  00C7               	movwf	(?_scale+2)
  5634  0FFE  2FFF               	goto	l4003
  5635                           	
  5636  0FFF                     l8851:	
  5637                           	line	437
  5638                           	
  5639  0FFF                     l4003:	
  5640  0FFF  0008               	return
  5641                           	opt stack 0
  5642                           GLOBAL	__end_of_scale
  5643  1000                     	__end_of_scale:
  5644 ;; =============== function _scale ends ============
  5645                           
  5646                           	signat	_scale,4219
  5647                           	global	_fround
  5648                           psect	text605,local,class=CODE,delta=2
  5649                           global __ptext605
  5650  0909                     __ptext605:
  5651                           
  5652 ;; *************** function _fround *****************
  5653 ;; Defined at:
  5654 ;;		line 406 in file "C:\Program Files (x86)\HI-TECH Software\PICC\9.82\lib\doprnt.c"
  5655 ;; Parameters:    Size  Location     Type
  5656 ;;  prec            1    wreg     unsigned char 
  5657 ;; Auto vars:     Size  Location     Type
  5658 ;;  prec            1   65[BANK0 ] unsigned char 
  5659 ;; Return value:  Size  Location     Type
  5660 ;;                  3   50[BANK0 ] unsigned char 
  5661 ;; Registers used:
  5662 ;;		wreg, fsr0l, fsr0h, status,2, status,0, pclath, cstack
  5663 ;; Tracked objects:
  5664 ;;		On entry : 0/0
  5665 ;;		On exit  : 0/0
  5666 ;;		Unchanged: 0/0
  5667 ;; Data sizes:     COMMON   BANK0   BANK1   BANK3   BANK2
  5668 ;;      Params:         0       3       0       0       0
  5669 ;;      Locals:         0       7       0       0       0
  5670 ;;      Temps:          0       6       0       0       0
  5671 ;;      Totals:         0      16       0       0       0
  5672 ;;Total ram usage:       16 bytes
  5673 ;; Hardware stack levels used:    1
  5674 ;; Hardware stack levels required when called:    2
  5675 ;; This function calls:
  5676 ;;		___awmod
  5677 ;;		___bmul
  5678 ;;		___awdiv
  5679 ;;		___ftmul
  5680 ;; This function is called by:
  5681 ;;		_sprintf
  5682 ;; This function uses a non-reentrant model
  5683 ;;
  5684                           psect	text605
  5685                           	file	"C:\Program Files (x86)\HI-TECH Software\PICC\9.82\sources\doprnt.c"
  5686                           	line	406
  5687                           	global	__size_of_fround
  5688  01AB                     	__size_of_fround	equ	__end_of_fround-_fround
  5689                           	
  5690  0909                     _fround:	
  5691                           	opt	stack 4
  5692                           ; Regs used in _fround: [wreg-fsr0h+status,2+status,0+pclath+cstack]
  5693                           ;fround@prec stored from wreg
  5694                           	line	409
  5695  0909  1283               	bcf	status, 5	;RP0=0, select bank0
  5696  090A  1303               	bcf	status, 6	;RP1=0, select bank0
  5697  090B  00E1               	movwf	(fround@prec)
  5698                           	
  5699  090C                     l8791:	
  5700  090C  306E               	movlw	(06Eh)
  5701  090D  0261               	subwf	(fround@prec),w
  5702  090E  1C03               	skipc
  5703  090F  2911               	goto	u4581
  5704  0910  2912               	goto	u4580
  5705  0911                     u4581:
  5706  0911  29EF               	goto	l8801
  5707  0912                     u4580:
  5708                           	line	410
  5709                           	
  5710  0912                     l8793:	
  5711  0912  3003               	movlw	(03h)
  5712  0913  00D5               	movwf	(??_fround+0)+0
  5713  0914  0855               	movf	(??_fround+0)+0,w
  5714  0915  00A4               	movwf	(?___bmul)
  5715  0916  300A               	movlw	low(0Ah)
  5716  0917  00F7               	movwf	(?___awdiv)
  5717  0918  3000               	movlw	high(0Ah)
  5718  0919  00F8               	movwf	((?___awdiv))+1
  5719  091A  0861               	movf	(fround@prec),w
  5720  091B  00D6               	movwf	(??_fround+1)+0
  5721  091C  01D7               	clrf	(??_fround+1)+0+1
  5722  091D  0856               	movf	0+(??_fround+1)+0,w
  5723  091E  00F2               	movwf	0+(?___awmod)+02h
  5724  091F  0857               	movf	1+(??_fround+1)+0,w
  5725  0920  00F3               	movwf	1+(?___awmod)+02h
  5726  0921  3064               	movlw	low(064h)
  5727  0922  00F0               	movwf	(?___awmod)
  5728  0923  3000               	movlw	high(064h)
  5729  0924  00F1               	movwf	((?___awmod))+1
  5730  0925  160A  118A  228F   	fcall	___awmod
              120A  158A         
  5731  092A  0871               	movf	(1+(?___awmod)),w
  5732  092B  01FA               	clrf	1+(?___awdiv)+02h
  5733  092C  07FA               	addwf	1+(?___awdiv)+02h
  5734  092D  0870               	movf	(0+(?___awmod)),w
  5735  092E  01F9               	clrf	0+(?___awdiv)+02h
  5736  092F  07F9               	addwf	0+(?___awdiv)+02h
  5737                           
  5738  0930  160A  118A  23CF   	fcall	___awdiv
              120A  158A         
  5739  0935  0877               	movf	(0+(?___awdiv)),w
  5740  0936  3E09               	addlw	09h
  5741  0937  160A  118A  20EC   	fcall	___bmul
              120A  158A         
  5742  093C  3E29               	addlw	low((__npowers_-__stringbase))
  5743  093D  0084               	movwf	fsr0
  5744  093E  160A  118A  200A   	fcall	stringdir
              120A  158A         
  5745  0943  1283               	bcf	status, 5	;RP0=0, select bank0
  5746  0944  1303               	bcf	status, 6	;RP1=0, select bank0
  5747  0945  00B5               	movwf	(?___ftmul)
  5748  0946  160A  118A  200A   	fcall	stringdir
              120A  158A         
  5749  094B  00B6               	movwf	(?___ftmul+1)
  5750  094C  160A  118A  200A   	fcall	stringdir
              120A  158A         
  5751  0951  00B7               	movwf	(?___ftmul+2)
  5752  0952  3003               	movlw	(03h)
  5753  0953  00D8               	movwf	(??_fround+3)+0
  5754  0954  0858               	movf	(??_fround+3)+0,w
  5755  0955  00A4               	movwf	(?___bmul)
  5756  0956  3064               	movlw	low(064h)
  5757  0957  00F7               	movwf	(?___awdiv)
  5758  0958  3000               	movlw	high(064h)
  5759  0959  00F8               	movwf	((?___awdiv))+1
  5760  095A  0861               	movf	(fround@prec),w
  5761  095B  00D9               	movwf	(??_fround+4)+0
  5762  095C  01DA               	clrf	(??_fround+4)+0+1
  5763  095D  0859               	movf	0+(??_fround+4)+0,w
  5764  095E  00F9               	movwf	0+(?___awdiv)+02h
  5765  095F  085A               	movf	1+(??_fround+4)+0,w
  5766  0960  00FA               	movwf	1+(?___awdiv)+02h
  5767  0961  160A  118A  23CF   	fcall	___awdiv
              120A  158A         
  5768  0966  0877               	movf	(0+(?___awdiv)),w
  5769  0967  3E12               	addlw	012h
  5770  0968  160A  118A  20EC   	fcall	___bmul
              120A  158A         
  5771  096D  3E29               	addlw	low((__npowers_-__stringbase))
  5772  096E  0084               	movwf	fsr0
  5773  096F  160A  118A  200A   	fcall	stringdir
              120A  158A         
  5774  0974  1283               	bcf	status, 5	;RP0=0, select bank0
  5775  0975  1303               	bcf	status, 6	;RP1=0, select bank0
  5776  0976  00B8               	movwf	0+(?___ftmul)+03h
  5777  0977  160A  118A  200A   	fcall	stringdir
              120A  158A         
  5778  097C  00B9               	movwf	1+(?___ftmul)+03h
  5779  097D  160A  118A  200A   	fcall	stringdir
              120A  158A         
  5780  0982  00BA               	movwf	2+(?___ftmul)+03h
  5781  0983  120A  118A  201E   	fcall	___ftmul
              120A  158A         
  5782  0988  1283               	bcf	status, 5	;RP0=0, select bank0
  5783  0989  1303               	bcf	status, 6	;RP1=0, select bank0
  5784  098A  0835               	movf	(0+(?___ftmul)),w
  5785  098B  00DE               	movwf	(_fround$5661)
  5786  098C  0836               	movf	(1+(?___ftmul)),w
  5787  098D  00DF               	movwf	(_fround$5661+1)
  5788  098E  0837               	movf	(2+(?___ftmul)),w
  5789  098F  00E0               	movwf	(_fround$5661+2)
  5790  0990  3003               	movlw	(03h)
  5791  0991  00D5               	movwf	(??_fround+0)+0
  5792  0992  0855               	movf	(??_fround+0)+0,w
  5793  0993  00A4               	movwf	(?___bmul)
  5794  0994  0861               	movf	(fround@prec),w
  5795  0995  00D6               	movwf	(??_fround+1)+0
  5796  0996  01D7               	clrf	(??_fround+1)+0+1
  5797  0997  0856               	movf	0+(??_fround+1)+0,w
  5798  0998  00F2               	movwf	0+(?___awmod)+02h
  5799  0999  0857               	movf	1+(??_fround+1)+0,w
  5800  099A  00F3               	movwf	1+(?___awmod)+02h
  5801  099B  300A               	movlw	low(0Ah)
  5802  099C  00F0               	movwf	(?___awmod)
  5803  099D  3000               	movlw	high(0Ah)
  5804  099E  00F1               	movwf	((?___awmod))+1
  5805  099F  160A  118A  228F   	fcall	___awmod
              120A  158A         
  5806  09A4  0870               	movf	(0+(?___awmod)),w
  5807  09A5  160A  118A  20EC   	fcall	___bmul
              120A  158A         
  5808  09AA  3E29               	addlw	low((__npowers_-__stringbase))
  5809  09AB  0084               	movwf	fsr0
  5810  09AC  160A  118A  200A   	fcall	stringdir
              120A  158A         
  5811  09B1  1283               	bcf	status, 5	;RP0=0, select bank0
  5812  09B2  1303               	bcf	status, 6	;RP1=0, select bank0
  5813  09B3  00B5               	movwf	(?___ftmul)
  5814  09B4  160A  118A  200A   	fcall	stringdir
              120A  158A         
  5815  09B9  00B6               	movwf	(?___ftmul+1)
  5816  09BA  160A  118A  200A   	fcall	stringdir
              120A  158A         
  5817  09BF  00B7               	movwf	(?___ftmul+2)
  5818  09C0  085E               	movf	(_fround$5661),w
  5819  09C1  00B8               	movwf	0+(?___ftmul)+03h
  5820  09C2  085F               	movf	(_fround$5661+1),w
  5821  09C3  00B9               	movwf	1+(?___ftmul)+03h
  5822  09C4  0860               	movf	(_fround$5661+2),w
  5823  09C5  00BA               	movwf	2+(?___ftmul)+03h
  5824  09C6  120A  118A  201E   	fcall	___ftmul
              120A  158A         
  5825  09CB  1283               	bcf	status, 5	;RP0=0, select bank0
  5826  09CC  1303               	bcf	status, 6	;RP1=0, select bank0
  5827  09CD  0835               	movf	(0+(?___ftmul)),w
  5828  09CE  00DB               	movwf	(_fround$5662)
  5829  09CF  0836               	movf	(1+(?___ftmul)),w
  5830  09D0  00DC               	movwf	(_fround$5662+1)
  5831  09D1  0837               	movf	(2+(?___ftmul)),w
  5832  09D2  00DD               	movwf	(_fround$5662+2)
  5833                           	
  5834  09D3                     l8795:	
  5835  09D3  3000               	movlw	0x0
  5836  09D4  00B5               	movwf	(?___ftmul)
  5837  09D5  3000               	movlw	0x0
  5838  09D6  00B6               	movwf	(?___ftmul+1)
  5839  09D7  303F               	movlw	0x3f
  5840  09D8  00B7               	movwf	(?___ftmul+2)
  5841  09D9  085B               	movf	(_fround$5662),w
  5842  09DA  00B8               	movwf	0+(?___ftmul)+03h
  5843  09DB  085C               	movf	(_fround$5662+1),w
  5844  09DC  00B9               	movwf	1+(?___ftmul)+03h
  5845  09DD  085D               	movf	(_fround$5662+2),w
  5846  09DE  00BA               	movwf	2+(?___ftmul)+03h
  5847  09DF  120A  118A  201E   	fcall	___ftmul
              120A  158A         
  5848  09E4  1283               	bcf	status, 5	;RP0=0, select bank0
  5849  09E5  1303               	bcf	status, 6	;RP1=0, select bank0
  5850  09E6  0835               	movf	(0+(?___ftmul)),w
  5851  09E7  00D2               	movwf	(?_fround)
  5852  09E8  0836               	movf	(1+(?___ftmul)),w
  5853  09E9  00D3               	movwf	(?_fround+1)
  5854  09EA  0837               	movf	(2+(?___ftmul)),w
  5855  09EB  00D4               	movwf	(?_fround+2)
  5856  09EC  2AB3               	goto	l3996
  5857                           	
  5858  09ED                     l8797:	
  5859  09ED  2AB3               	goto	l3996
  5860                           	
  5861  09EE                     l8799:	
  5862  09EE  2A7F               	goto	l8809
  5863                           	line	411
  5864                           	
  5865  09EF                     l3995:	
  5866                           	
  5867  09EF                     l8801:	
  5868  09EF  300B               	movlw	(0Bh)
  5869  09F0  0261               	subwf	(fround@prec),w
  5870  09F1  1C03               	skipc
  5871  09F2  29F4               	goto	u4591
  5872  09F3  29F5               	goto	u4590
  5873  09F4                     u4591:
  5874  09F4  2A7F               	goto	l8809
  5875  09F5                     u4590:
  5876                           	line	412
  5877                           	
  5878  09F5                     l8803:	
  5879  09F5  3003               	movlw	(03h)
  5880  09F6  00D5               	movwf	(??_fround+0)+0
  5881  09F7  0855               	movf	(??_fround+0)+0,w
  5882  09F8  00A4               	movwf	(?___bmul)
  5883  09F9  0861               	movf	(fround@prec),w
  5884  09FA  00D6               	movwf	(??_fround+1)+0
  5885  09FB  01D7               	clrf	(??_fround+1)+0+1
  5886  09FC  0856               	movf	0+(??_fround+1)+0,w
  5887  09FD  00F2               	movwf	0+(?___awmod)+02h
  5888  09FE  0857               	movf	1+(??_fround+1)+0,w
  5889  09FF  00F3               	movwf	1+(?___awmod)+02h
  5890  0A00  300A               	movlw	low(0Ah)
  5891  0A01  00F0               	movwf	(?___awmod)
  5892  0A02  3000               	movlw	high(0Ah)
  5893  0A03  00F1               	movwf	((?___awmod))+1
  5894  0A04  160A  118A  228F   	fcall	___awmod
              120A  158A         
  5895  0A09  0870               	movf	(0+(?___awmod)),w
  5896  0A0A  160A  118A  20EC   	fcall	___bmul
              120A  158A         
  5897  0A0F  3E29               	addlw	low((__npowers_-__stringbase))
  5898  0A10  0084               	movwf	fsr0
  5899  0A11  160A  118A  200A   	fcall	stringdir
              120A  158A         
  5900  0A16  1283               	bcf	status, 5	;RP0=0, select bank0
  5901  0A17  1303               	bcf	status, 6	;RP1=0, select bank0
  5902  0A18  00B5               	movwf	(?___ftmul)
  5903  0A19  160A  118A  200A   	fcall	stringdir
              120A  158A         
  5904  0A1E  00B6               	movwf	(?___ftmul+1)
  5905  0A1F  160A  118A  200A   	fcall	stringdir
              120A  158A         
  5906  0A24  00B7               	movwf	(?___ftmul+2)
  5907  0A25  3003               	movlw	(03h)
  5908  0A26  00D8               	movwf	(??_fround+3)+0
  5909  0A27  0858               	movf	(??_fround+3)+0,w
  5910  0A28  00A4               	movwf	(?___bmul)
  5911  0A29  300A               	movlw	low(0Ah)
  5912  0A2A  00F7               	movwf	(?___awdiv)
  5913  0A2B  3000               	movlw	high(0Ah)
  5914  0A2C  00F8               	movwf	((?___awdiv))+1
  5915  0A2D  0861               	movf	(fround@prec),w
  5916  0A2E  00D9               	movwf	(??_fround+4)+0
  5917  0A2F  01DA               	clrf	(??_fround+4)+0+1
  5918  0A30  0859               	movf	0+(??_fround+4)+0,w
  5919  0A31  00F9               	movwf	0+(?___awdiv)+02h
  5920  0A32  085A               	movf	1+(??_fround+4)+0,w
  5921  0A33  00FA               	movwf	1+(?___awdiv)+02h
  5922  0A34  160A  118A  23CF   	fcall	___awdiv
              120A  158A         
  5923  0A39  0877               	movf	(0+(?___awdiv)),w
  5924  0A3A  3E09               	addlw	09h
  5925  0A3B  160A  118A  20EC   	fcall	___bmul
              120A  158A         
  5926  0A40  3E29               	addlw	low((__npowers_-__stringbase))
  5927  0A41  0084               	movwf	fsr0
  5928  0A42  160A  118A  200A   	fcall	stringdir
              120A  158A         
  5929  0A47  1283               	bcf	status, 5	;RP0=0, select bank0
  5930  0A48  1303               	bcf	status, 6	;RP1=0, select bank0
  5931  0A49  00B8               	movwf	0+(?___ftmul)+03h
  5932  0A4A  160A  118A  200A   	fcall	stringdir
              120A  158A         
  5933  0A4F  00B9               	movwf	1+(?___ftmul)+03h
  5934  0A50  160A  118A  200A   	fcall	stringdir
              120A  158A         
  5935  0A55  00BA               	movwf	2+(?___ftmul)+03h
  5936  0A56  120A  118A  201E   	fcall	___ftmul
              120A  158A         
  5937  0A5B  1283               	bcf	status, 5	;RP0=0, select bank0
  5938  0A5C  1303               	bcf	status, 6	;RP1=0, select bank0
  5939  0A5D  0835               	movf	(0+(?___ftmul)),w
  5940  0A5E  00DE               	movwf	(_fround$5661)
  5941  0A5F  0836               	movf	(1+(?___ftmul)),w
  5942  0A60  00DF               	movwf	(_fround$5661+1)
  5943  0A61  0837               	movf	(2+(?___ftmul)),w
  5944  0A62  00E0               	movwf	(_fround$5661+2)
  5945                           	
  5946  0A63                     l8805:	
  5947  0A63  3000               	movlw	0x0
  5948  0A64  00B5               	movwf	(?___ftmul)
  5949  0A65  3000               	movlw	0x0
  5950  0A66  00B6               	movwf	(?___ftmul+1)
  5951  0A67  303F               	movlw	0x3f
  5952  0A68  00B7               	movwf	(?___ftmul+2)
  5953  0A69  085E               	movf	(_fround$5661),w
  5954  0A6A  00B8               	movwf	0+(?___ftmul)+03h
  5955  0A6B  085F               	movf	(_fround$5661+1),w
  5956  0A6C  00B9               	movwf	1+(?___ftmul)+03h
  5957  0A6D  0860               	movf	(_fround$5661+2),w
  5958  0A6E  00BA               	movwf	2+(?___ftmul)+03h
  5959  0A6F  120A  118A  201E   	fcall	___ftmul
              120A  158A         
  5960  0A74  1283               	bcf	status, 5	;RP0=0, select bank0
  5961  0A75  1303               	bcf	status, 6	;RP1=0, select bank0
  5962  0A76  0835               	movf	(0+(?___ftmul)),w
  5963  0A77  00D2               	movwf	(?_fround)
  5964  0A78  0836               	movf	(1+(?___ftmul)),w
  5965  0A79  00D3               	movwf	(?_fround+1)
  5966  0A7A  0837               	movf	(2+(?___ftmul)),w
  5967  0A7B  00D4               	movwf	(?_fround+2)
  5968  0A7C  2AB3               	goto	l3996
  5969                           	
  5970  0A7D                     l8807:	
  5971  0A7D  2AB3               	goto	l3996
  5972                           	
  5973  0A7E                     l3998:	
  5974  0A7E  2A7F               	goto	l8809
  5975                           	line	413
  5976                           	
  5977  0A7F                     l3997:	
  5978                           	
  5979  0A7F                     l8809:	
  5980  0A7F  3000               	movlw	0x0
  5981  0A80  00B5               	movwf	(?___ftmul)
  5982  0A81  3000               	movlw	0x0
  5983  0A82  00B6               	movwf	(?___ftmul+1)
  5984  0A83  303F               	movlw	0x3f
  5985  0A84  00B7               	movwf	(?___ftmul+2)
  5986  0A85  3003               	movlw	(03h)
  5987  0A86  00D5               	movwf	(??_fround+0)+0
  5988  0A87  0855               	movf	(??_fround+0)+0,w
  5989  0A88  00A4               	movwf	(?___bmul)
  5990  0A89  0861               	movf	(fround@prec),w
  5991  0A8A  160A  118A  20EC   	fcall	___bmul
              120A  158A         
  5992  0A8F  3E29               	addlw	low((__npowers_-__stringbase))
  5993  0A90  0084               	movwf	fsr0
  5994  0A91  160A  118A  200A   	fcall	stringdir
              120A  158A         
  5995  0A96  1283               	bcf	status, 5	;RP0=0, select bank0
  5996  0A97  1303               	bcf	status, 6	;RP1=0, select bank0
  5997  0A98  00B8               	movwf	0+(?___ftmul)+03h
  5998  0A99  160A  118A  200A   	fcall	stringdir
              120A  158A         
  5999  0A9E  00B9               	movwf	1+(?___ftmul)+03h
  6000  0A9F  160A  118A  200A   	fcall	stringdir
              120A  158A         
  6001  0AA4  00BA               	movwf	2+(?___ftmul)+03h
  6002  0AA5  120A  118A  201E   	fcall	___ftmul
              120A  158A         
  6003  0AAA  1283               	bcf	status, 5	;RP0=0, select bank0
  6004  0AAB  1303               	bcf	status, 6	;RP1=0, select bank0
  6005  0AAC  0835               	movf	(0+(?___ftmul)),w
  6006  0AAD  00D2               	movwf	(?_fround)
  6007  0AAE  0836               	movf	(1+(?___ftmul)),w
  6008  0AAF  00D3               	movwf	(?_fround+1)
  6009  0AB0  0837               	movf	(2+(?___ftmul)),w
  6010  0AB1  00D4               	movwf	(?_fround+2)
  6011  0AB2  2AB3               	goto	l3996
  6012                           	
  6013  0AB3                     l8811:	
  6014                           	line	414
  6015                           	
  6016  0AB3                     l3996:	
  6017  0AB3  0008               	return
  6018                           	opt stack 0
  6019                           GLOBAL	__end_of_fround
  6020  0AB4                     	__end_of_fround:
  6021 ;; =============== function _fround ends ============
  6022                           
  6023                           	signat	_fround,4219
  6024                           	global	_lcd_write
  6025                           psect	text606,local,class=CODE,delta=2
  6026                           global __ptext606
  6027  1106                     __ptext606:
  6028                           
  6029 ;; *************** function _lcd_write *****************
  6030 ;; Defined at:
  6031 ;;		line 34 in file "C:\PIC_PROGS\C\PWM\lcd.c"
  6032 ;; Parameters:    Size  Location     Type
  6033 ;;  c               1    wreg     unsigned char 
  6034 ;; Auto vars:     Size  Location     Type
  6035 ;;  c               1    5[COMMON] unsigned char 
  6036 ;; Return value:  Size  Location     Type
  6037 ;;		None               void
  6038 ;; Registers used:
  6039 ;;		wreg, status,2, status,0, pclath, cstack
  6040 ;; Tracked objects:
  6041 ;;		On entry : 0/0
  6042 ;;		On exit  : 0/0
  6043 ;;		Unchanged: 0/0
  6044 ;; Data sizes:     COMMON   BANK0   BANK1   BANK3   BANK2
  6045 ;;      Params:         0       0       0       0       0
  6046 ;;      Locals:         1       0       0       0       0
  6047 ;;      Temps:          1       0       0       0       0
  6048 ;;      Totals:         2       0       0       0       0
  6049 ;;Total ram usage:        2 bytes
  6050 ;; Hardware stack levels used:    1
  6051 ;; Hardware stack levels required when called:    2
  6052 ;; This function calls:
  6053 ;;		_pause
  6054 ;; This function is called by:
  6055 ;;		_lcd_clear
  6056 ;;		_lcd_puts
  6057 ;;		_lcd_putch
  6058 ;;		_lcd_goto
  6059 ;;		_lcd_init
  6060 ;; This function uses a non-reentrant model
  6061 ;;
  6062                           psect	text606
  6063                           	file	"C:\PIC_PROGS\C\PWM\lcd.c"
  6064                           	line	34
  6065                           	global	__size_of_lcd_write
  6066  001F                     	__size_of_lcd_write	equ	__end_of_lcd_write-_lcd_write
  6067                           	
  6068  1106                     _lcd_write:	
  6069                           	opt	stack 4
  6070                           ; Regs used in _lcd_write: [wreg+status,2+status,0+pclath+cstack]
  6071                           ;lcd_write@c stored from wreg
  6072  1106  00F5               	movwf	(lcd_write@c)
  6073                           	line	35
  6074                           	
  6075  1107                     l8777:	
  6076                           ;lcd.c: 35: pause (1);
  6077  1107  3001               	movlw	low(01h)
  6078  1108  00F0               	movwf	(?_pause)
  6079  1109  3000               	movlw	high(01h)
  6080  110A  00F1               	movwf	((?_pause))+1
  6081  110B  120A  118A  2003   	fcall	_pause
              160A  118A         
  6082                           	line	36
  6083                           	
  6084  1110                     l8779:	
  6085                           ;lcd.c: 36: PORTD = ( ( c >> 4 ) & 0x0F );
  6086  1110  0875               	movf	(lcd_write@c),w
  6087  1111  00F4               	movwf	(??_lcd_write+0)+0
  6088  1112  3004               	movlw	04h
  6089  1113                     u4575:
  6090  1113  1003               	clrc
  6091  1114  0CF4               	rrf	(??_lcd_write+0)+0,f
  6092  1115  3EFF               	addlw	-1
  6093  1116  1D03               	skipz
  6094  1117  2913               	goto	u4575
  6095  1118  0874               	movf	0+(??_lcd_write+0)+0,w
  6096  1119  390F               	andlw	0Fh
  6097  111A  1283               	bcf	status, 5	;RP0=0, select bank0
  6098  111B  1303               	bcf	status, 6	;RP1=0, select bank0
  6099  111C  0088               	movwf	(8)	;volatile
  6100                           	line	37
  6101                           	
  6102  111D                     l8781:	
  6103                           ;lcd.c: 37: ((RA1 = 1),(RA1=0));
  6104  111D  1485               	bsf	(41/8),(41)&7
  6105                           	
  6106  111E                     l8783:	
  6107  111E  1085               	bcf	(41/8),(41)&7
  6108                           	line	38
  6109                           	
  6110  111F                     l8785:	
  6111                           ;lcd.c: 38: PORTD = ( c & 0x0F );
  6112  111F  0875               	movf	(lcd_write@c),w
  6113  1120  390F               	andlw	0Fh
  6114  1121  0088               	movwf	(8)	;volatile
  6115                           	line	39
  6116                           	
  6117  1122                     l8787:	
  6118                           ;lcd.c: 39: ((RA1 = 1),(RA1=0));
  6119  1122  1485               	bsf	(41/8),(41)&7
  6120                           	
  6121  1123                     l8789:	
  6122  1123  1085               	bcf	(41/8),(41)&7
  6123                           	line	41
  6124                           	
  6125  1124                     l1900:	
  6126  1124  0008               	return
  6127                           	opt stack 0
  6128                           GLOBAL	__end_of_lcd_write
  6129  1125                     	__end_of_lcd_write:
  6130 ;; =============== function _lcd_write ends ============
  6131                           
  6132                           	signat	_lcd_write,4216
  6133                           	global	___lltoft
  6134                           psect	text607,local,class=CODE,delta=2
  6135                           global __ptext607
  6136  11A2                     __ptext607:
  6137                           
  6138 ;; *************** function ___lltoft *****************
  6139 ;; Defined at:
  6140 ;;		line 36 in file "C:\Program Files (x86)\HI-TECH Software\PICC\9.82\sources\lltoft.c"
  6141 ;; Parameters:    Size  Location     Type
  6142 ;;  c               4    8[COMMON] unsigned long 
  6143 ;; Auto vars:     Size  Location     Type
  6144 ;;  exp             1   13[COMMON] unsigned char 
  6145 ;; Return value:  Size  Location     Type
  6146 ;;                  3    8[COMMON] float 
  6147 ;; Registers used:
  6148 ;;		wreg, status,2, status,0, pclath, cstack
  6149 ;; Tracked objects:
  6150 ;;		On entry : 0/0
  6151 ;;		On exit  : 0/0
  6152 ;;		Unchanged: 0/0
  6153 ;; Data sizes:     COMMON   BANK0   BANK1   BANK3   BANK2
  6154 ;;      Params:         4       0       0       0       0
  6155 ;;      Locals:         1       0       0       0       0
  6156 ;;      Temps:          1       0       0       0       0
  6157 ;;      Totals:         6       0       0       0       0
  6158 ;;Total ram usage:        6 bytes
  6159 ;; Hardware stack levels used:    1
  6160 ;; Hardware stack levels required when called:    1
  6161 ;; This function calls:
  6162 ;;		___ftpack
  6163 ;; This function is called by:
  6164 ;;		_sprintf
  6165 ;; This function uses a non-reentrant model
  6166 ;;
  6167                           psect	text607
  6168                           	file	"C:\Program Files (x86)\HI-TECH Software\PICC\9.82\sources\lltoft.c"
  6169                           	line	36
  6170                           	global	__size_of___lltoft
  6171  0032                     	__size_of___lltoft	equ	__end_of___lltoft-___lltoft
  6172                           	
  6173  11A2                     ___lltoft:	
  6174                           	opt	stack 5
  6175                           ; Regs used in ___lltoft: [wreg+status,2+status,0+pclath+cstack]
  6176                           	line	38
  6177                           	
  6178  11A2                     l8767:	
  6179  11A2  308E               	movlw	(08Eh)
  6180  11A3  00FC               	movwf	(??___lltoft+0)+0
  6181  11A4  087C               	movf	(??___lltoft+0)+0,w
  6182  11A5  00FD               	movwf	(___lltoft@exp)
  6183                           	line	41
  6184  11A6  29B5               	goto	l8771
  6185                           	
  6186  11A7                     l5305:	
  6187                           	line	42
  6188                           	
  6189  11A7                     l8769:	
  6190  11A7  3001               	movlw	01h
  6191  11A8                     u4555:
  6192  11A8  1003               	clrc
  6193  11A9  0CFB               	rrf	(___lltoft@c+3),f
  6194  11AA  0CFA               	rrf	(___lltoft@c+2),f
  6195  11AB  0CF9               	rrf	(___lltoft@c+1),f
  6196  11AC  0CF8               	rrf	(___lltoft@c),f
  6197  11AD  3EFF               	addlw	-1
  6198  11AE  1D03               	skipz
  6199  11AF  29A8               	goto	u4555
  6200                           
  6201                           	line	43
  6202  11B0  3001               	movlw	(01h)
  6203  11B1  00FC               	movwf	(??___lltoft+0)+0
  6204  11B2  087C               	movf	(??___lltoft+0)+0,w
  6205  11B3  07FD               	addwf	(___lltoft@exp),f
  6206  11B4  29B5               	goto	l8771
  6207                           	line	44
  6208                           	
  6209  11B5                     l5304:	
  6210                           	line	41
  6211                           	
  6212  11B5                     l8771:	
  6213  11B5  30FF               	movlw	high highword(-16777216)
  6214  11B6  057B               	andwf	(___lltoft@c+3),w
  6215  11B7  1D03               	btfss	status,2
  6216  11B8  29BA               	goto	u4561
  6217  11B9  29BB               	goto	u4560
  6218  11BA                     u4561:
  6219  11BA  29A7               	goto	l8769
  6220  11BB                     u4560:
  6221  11BB  29BC               	goto	l8773
  6222                           	
  6223  11BC                     l5306:	
  6224                           	line	45
  6225                           	
  6226  11BC                     l8773:	
  6227  11BC  0878               	movf	(___lltoft@c),w
  6228  11BD  00F0               	movwf	(?___ftpack)
  6229  11BE  0879               	movf	(___lltoft@c+1),w
  6230  11BF  00F1               	movwf	(?___ftpack+1)
  6231  11C0  087A               	movf	(___lltoft@c+2),w
  6232  11C1  00F2               	movwf	(?___ftpack+2)
  6233  11C2  087D               	movf	(___lltoft@exp),w
  6234  11C3  00FC               	movwf	(??___lltoft+0)+0
  6235  11C4  087C               	movf	(??___lltoft+0)+0,w
  6236  11C5  00F3               	movwf	0+(?___ftpack)+03h
  6237  11C6  01F4               	clrf	0+(?___ftpack)+04h
  6238  11C7  160A  118A  2445   	fcall	___ftpack
              160A  118A         
  6239  11CC  0870               	movf	(0+(?___ftpack)),w
  6240  11CD  00F8               	movwf	(?___lltoft)
  6241  11CE  0871               	movf	(1+(?___ftpack)),w
  6242  11CF  00F9               	movwf	(?___lltoft+1)
  6243  11D0  0872               	movf	(2+(?___ftpack)),w
  6244  11D1  00FA               	movwf	(?___lltoft+2)
  6245  11D2  29D3               	goto	l5307
  6246                           	
  6247  11D3                     l8775:	
  6248                           	line	46
  6249                           	
  6250  11D3                     l5307:	
  6251  11D3  0008               	return
  6252                           	opt stack 0
  6253                           GLOBAL	__end_of___lltoft
  6254  11D4                     	__end_of___lltoft:
  6255 ;; =============== function ___lltoft ends ============
  6256                           
  6257                           	signat	___lltoft,4219
  6258                           	global	___awtoft
  6259                           psect	text608,local,class=CODE,delta=2
  6260                           global __ptext608
  6261  1125                     __ptext608:
  6262                           
  6263 ;; *************** function ___awtoft *****************
  6264 ;; Defined at:
  6265 ;;		line 33 in file "C:\Program Files (x86)\HI-TECH Software\PICC\9.82\sources\awtoft.c"
  6266 ;; Parameters:    Size  Location     Type
  6267 ;;  c               2    8[COMMON] int 
  6268 ;; Auto vars:     Size  Location     Type
  6269 ;;  sign            1   13[COMMON] unsigned char 
  6270 ;; Return value:  Size  Location     Type
  6271 ;;                  3    8[COMMON] float 
  6272 ;; Registers used:
  6273 ;;		wreg, status,2, status,0, pclath, cstack
  6274 ;; Tracked objects:
  6275 ;;		On entry : 0/0
  6276 ;;		On exit  : 0/0
  6277 ;;		Unchanged: 0/0
  6278 ;; Data sizes:     COMMON   BANK0   BANK1   BANK3   BANK2
  6279 ;;      Params:         3       0       0       0       0
  6280 ;;      Locals:         1       0       0       0       0
  6281 ;;      Temps:          2       0       0       0       0
  6282 ;;      Totals:         6       0       0       0       0
  6283 ;;Total ram usage:        6 bytes
  6284 ;; Hardware stack levels used:    1
  6285 ;; Hardware stack levels required when called:    1
  6286 ;; This function calls:
  6287 ;;		___ftpack
  6288 ;; This function is called by:
  6289 ;;		_main
  6290 ;; This function uses a non-reentrant model
  6291 ;;
  6292                           psect	text608
  6293                           	file	"C:\Program Files (x86)\HI-TECH Software\PICC\9.82\sources\awtoft.c"
  6294                           	line	33
  6295                           	global	__size_of___awtoft
  6296  0028                     	__size_of___awtoft	equ	__end_of___awtoft-___awtoft
  6297                           	
  6298  1125                     ___awtoft:	
  6299                           	opt	stack 6
  6300                           ; Regs used in ___awtoft: [wreg+status,2+status,0+pclath+cstack]
  6301                           	line	36
  6302                           	
  6303  1125                     l8759:	
  6304  1125  01FD               	clrf	(___awtoft@sign)
  6305                           	line	37
  6306  1126  1FF9               	btfss	(___awtoft@c+1),7
  6307  1127  2929               	goto	u4541
  6308  1128  292A               	goto	u4540
  6309  1129                     u4541:
  6310  1129  2933               	goto	l8763
  6311  112A                     u4540:
  6312                           	line	38
  6313                           	
  6314  112A                     l8761:	
  6315  112A  09F8               	comf	(___awtoft@c),f
  6316  112B  09F9               	comf	(___awtoft@c+1),f
  6317  112C  0AF8               	incf	(___awtoft@c),f
  6318  112D  1903               	skipnz
  6319  112E  0AF9               	incf	(___awtoft@c+1),f
  6320                           	line	39
  6321  112F  01FD               	clrf	(___awtoft@sign)
  6322  1130  1403               	bsf	status,0
  6323  1131  0DFD               	rlf	(___awtoft@sign),f
  6324  1132  2933               	goto	l8763
  6325                           	line	40
  6326                           	
  6327  1133                     l5203:	
  6328                           	line	41
  6329                           	
  6330  1133                     l8763:	
  6331  1133  0878               	movf	(___awtoft@c),w
  6332  1134  00F0               	movwf	(?___ftpack)
  6333  1135  0879               	movf	(___awtoft@c+1),w
  6334  1136  00F1               	movwf	(?___ftpack+1)
  6335  1137  01F2               	clrf	(?___ftpack+2)
  6336  1138  308E               	movlw	(08Eh)
  6337  1139  00FB               	movwf	(??___awtoft+0)+0
  6338  113A  087B               	movf	(??___awtoft+0)+0,w
  6339  113B  00F3               	movwf	0+(?___ftpack)+03h
  6340  113C  087D               	movf	(___awtoft@sign),w
  6341  113D  00FC               	movwf	(??___awtoft+1)+0
  6342  113E  087C               	movf	(??___awtoft+1)+0,w
  6343  113F  00F4               	movwf	0+(?___ftpack)+04h
  6344  1140  160A  118A  2445   	fcall	___ftpack
              160A  118A         
  6345  1145  0870               	movf	(0+(?___ftpack)),w
  6346  1146  00F8               	movwf	(?___awtoft)
  6347  1147  0871               	movf	(1+(?___ftpack)),w
  6348  1148  00F9               	movwf	(?___awtoft+1)
  6349  1149  0872               	movf	(2+(?___ftpack)),w
  6350  114A  00FA               	movwf	(?___awtoft+2)
  6351  114B  294C               	goto	l5204
  6352                           	
  6353  114C                     l8765:	
  6354                           	line	42
  6355                           	
  6356  114C                     l5204:	
  6357  114C  0008               	return
  6358                           	opt stack 0
  6359                           GLOBAL	__end_of___awtoft
  6360  114D                     	__end_of___awtoft:
  6361 ;; =============== function ___awtoft ends ============
  6362                           
  6363                           	signat	___awtoft,4219
  6364                           	global	___ftmul
  6365                           psect	text609,local,class=CODE,delta=2
  6366                           global __ptext609
  6367  001E                     __ptext609:
  6368                           
  6369 ;; *************** function ___ftmul *****************
  6370 ;; Defined at:
  6371 ;;		line 52 in file "C:\Program Files (x86)\HI-TECH Software\PICC\9.82\sources\ftmul.c"
  6372 ;; Parameters:    Size  Location     Type
  6373 ;;  f1              3   21[BANK0 ] float 
  6374 ;;  f2              3   24[BANK0 ] float 
  6375 ;; Auto vars:     Size  Location     Type
  6376 ;;  f3_as_produc    3   32[BANK0 ] unsigned um
  6377 ;;  sign            1   36[BANK0 ] unsigned char 
  6378 ;;  cntr            1   35[BANK0 ] unsigned char 
  6379 ;;  exp             1   31[BANK0 ] unsigned char 
  6380 ;; Return value:  Size  Location     Type
  6381 ;;                  3   21[BANK0 ] float 
  6382 ;; Registers used:
  6383 ;;		wreg, status,2, status,0, pclath, cstack
  6384 ;; Tracked objects:
  6385 ;;		On entry : 0/0
  6386 ;;		On exit  : 0/0
  6387 ;;		Unchanged: 0/0
  6388 ;; Data sizes:     COMMON   BANK0   BANK1   BANK3   BANK2
  6389 ;;      Params:         0       6       0       0       0
  6390 ;;      Locals:         0       6       0       0       0
  6391 ;;      Temps:          0       4       0       0       0
  6392 ;;      Totals:         0      16       0       0       0
  6393 ;;Total ram usage:       16 bytes
  6394 ;; Hardware stack levels used:    1
  6395 ;; Hardware stack levels required when called:    1
  6396 ;; This function calls:
  6397 ;;		___ftpack
  6398 ;; This function is called by:
  6399 ;;		_main
  6400 ;;		_fround
  6401 ;;		_scale
  6402 ;;		_sprintf
  6403 ;; This function uses a non-reentrant model
  6404 ;;
  6405                           psect	text609
  6406                           	file	"C:\Program Files (x86)\HI-TECH Software\PICC\9.82\sources\ftmul.c"
  6407                           	line	52
  6408                           	global	__size_of___ftmul
  6409  00EE                     	__size_of___ftmul	equ	__end_of___ftmul-___ftmul
  6410                           	
  6411  001E                     ___ftmul:	
  6412                           	opt	stack 4
  6413                           ; Regs used in ___ftmul: [wreg+status,2+status,0+pclath+cstack]
  6414                           	line	56
  6415                           	
  6416  001E                     l8709:	
  6417  001E  1283               	bcf	status, 5	;RP0=0, select bank0
  6418  001F  1303               	bcf	status, 6	;RP1=0, select bank0
  6419  0020  0835               	movf	(___ftmul@f1),w
  6420  0021  00BB               	movwf	((??___ftmul+0)+0)
  6421  0022  0836               	movf	(___ftmul@f1+1),w
  6422  0023  00BC               	movwf	((??___ftmul+0)+0+1)
  6423  0024  0837               	movf	(___ftmul@f1+2),w
  6424  0025  00BD               	movwf	((??___ftmul+0)+0+2)
  6425  0026  1003               	clrc
  6426  0027  0D3C               	rlf	(??___ftmul+0)+1,w
  6427  0028  0D3D               	rlf	(??___ftmul+0)+2,w
  6428  0029  00BE               	movwf	(??___ftmul+3)+0
  6429  002A  083E               	movf	(??___ftmul+3)+0,w
  6430  002B  00BF               	movwf	(___ftmul@exp)
  6431  002C  08BF               	movf	((___ftmul@exp)),f
  6432  002D  1D03               	skipz
  6433  002E  2830               	goto	u4401
  6434  002F  2831               	goto	u4400
  6435  0030                     u4401:
  6436  0030  2839               	goto	l8715
  6437  0031                     u4400:
  6438                           	line	57
  6439                           	
  6440  0031                     l8711:	
  6441  0031  3000               	movlw	0x0
  6442  0032  00B5               	movwf	(?___ftmul)
  6443  0033  3000               	movlw	0x0
  6444  0034  00B6               	movwf	(?___ftmul+1)
  6445  0035  3000               	movlw	0x0
  6446  0036  00B7               	movwf	(?___ftmul+2)
  6447  0037  290B               	goto	l5166
  6448                           	
  6449  0038                     l8713:	
  6450  0038  290B               	goto	l5166
  6451                           	
  6452  0039                     l5165:	
  6453                           	line	58
  6454                           	
  6455  0039                     l8715:	
  6456  0039  0838               	movf	(___ftmul@f2),w
  6457  003A  00BB               	movwf	((??___ftmul+0)+0)
  6458  003B  0839               	movf	(___ftmul@f2+1),w
  6459  003C  00BC               	movwf	((??___ftmul+0)+0+1)
  6460  003D  083A               	movf	(___ftmul@f2+2),w
  6461  003E  00BD               	movwf	((??___ftmul+0)+0+2)
  6462  003F  1003               	clrc
  6463  0040  0D3C               	rlf	(??___ftmul+0)+1,w
  6464  0041  0D3D               	rlf	(??___ftmul+0)+2,w
  6465  0042  00BE               	movwf	(??___ftmul+3)+0
  6466  0043  083E               	movf	(??___ftmul+3)+0,w
  6467  0044  00C4               	movwf	(___ftmul@sign)
  6468  0045  08C4               	movf	((___ftmul@sign)),f
  6469  0046  1D03               	skipz
  6470  0047  2849               	goto	u4411
  6471  0048  284A               	goto	u4410
  6472  0049                     u4411:
  6473  0049  2852               	goto	l8721
  6474  004A                     u4410:
  6475                           	line	59
  6476                           	
  6477  004A                     l8717:	
  6478  004A  3000               	movlw	0x0
  6479  004B  00B5               	movwf	(?___ftmul)
  6480  004C  3000               	movlw	0x0
  6481  004D  00B6               	movwf	(?___ftmul+1)
  6482  004E  3000               	movlw	0x0
  6483  004F  00B7               	movwf	(?___ftmul+2)
  6484  0050  290B               	goto	l5166
  6485                           	
  6486  0051                     l8719:	
  6487  0051  290B               	goto	l5166
  6488                           	
  6489  0052                     l5167:	
  6490                           	line	60
  6491                           	
  6492  0052                     l8721:	
  6493  0052  0844               	movf	(___ftmul@sign),w
  6494  0053  3E7B               	addlw	07Bh
  6495  0054  00BB               	movwf	(??___ftmul+0)+0
  6496  0055  083B               	movf	(??___ftmul+0)+0,w
  6497  0056  07BF               	addwf	(___ftmul@exp),f
  6498                           	line	61
  6499  0057  0835               	movf	(___ftmul@f1),w
  6500  0058  00BB               	movwf	((??___ftmul+0)+0)
  6501  0059  0836               	movf	(___ftmul@f1+1),w
  6502  005A  00BC               	movwf	((??___ftmul+0)+0+1)
  6503  005B  0837               	movf	(___ftmul@f1+2),w
  6504  005C  00BD               	movwf	((??___ftmul+0)+0+2)
  6505  005D  3010               	movlw	010h
  6506  005E                     u4425:
  6507  005E  1003               	clrc
  6508  005F  0CBD               	rrf	(??___ftmul+0)+2,f
  6509  0060  0CBC               	rrf	(??___ftmul+0)+1,f
  6510  0061  0CBB               	rrf	(??___ftmul+0)+0,f
  6511  0062                     u4420:
  6512  0062  3EFF               	addlw	-1
  6513  0063  1D03               	skipz
  6514  0064  285E               	goto	u4425
  6515  0065  083B               	movf	0+(??___ftmul+0)+0,w
  6516  0066  00BE               	movwf	(??___ftmul+3)+0
  6517  0067  083E               	movf	(??___ftmul+3)+0,w
  6518  0068  00C4               	movwf	(___ftmul@sign)
  6519                           	line	62
  6520  0069  0838               	movf	(___ftmul@f2),w
  6521  006A  00BB               	movwf	((??___ftmul+0)+0)
  6522  006B  0839               	movf	(___ftmul@f2+1),w
  6523  006C  00BC               	movwf	((??___ftmul+0)+0+1)
  6524  006D  083A               	movf	(___ftmul@f2+2),w
  6525  006E  00BD               	movwf	((??___ftmul+0)+0+2)
  6526  006F  3010               	movlw	010h
  6527  0070                     u4435:
  6528  0070  1003               	clrc
  6529  0071  0CBD               	rrf	(??___ftmul+0)+2,f
  6530  0072  0CBC               	rrf	(??___ftmul+0)+1,f
  6531  0073  0CBB               	rrf	(??___ftmul+0)+0,f
  6532  0074                     u4430:
  6533  0074  3EFF               	addlw	-1
  6534  0075  1D03               	skipz
  6535  0076  2870               	goto	u4435
  6536  0077  083B               	movf	0+(??___ftmul+0)+0,w
  6537  0078  00BE               	movwf	(??___ftmul+3)+0
  6538  0079  083E               	movf	(??___ftmul+3)+0,w
  6539  007A  06C4               	xorwf	(___ftmul@sign),f
  6540                           	line	63
  6541  007B  3080               	movlw	(080h)
  6542  007C  00BB               	movwf	(??___ftmul+0)+0
  6543  007D  083B               	movf	(??___ftmul+0)+0,w
  6544  007E  05C4               	andwf	(___ftmul@sign),f
  6545                           	line	64
  6546                           	
  6547  007F                     l8723:	
  6548  007F  17B6               	bsf	(___ftmul@f1)+(15/8),(15)&7
  6549                           	line	66
  6550                           	
  6551  0080                     l8725:	
  6552  0080  17B9               	bsf	(___ftmul@f2)+(15/8),(15)&7
  6553                           	line	67
  6554                           	
  6555  0081                     l8727:	
  6556  0081  30FF               	movlw	0FFh
  6557  0082  05B8               	andwf	(___ftmul@f2),f
  6558  0083  30FF               	movlw	0FFh
  6559  0084  05B9               	andwf	(___ftmul@f2+1),f
  6560  0085  3000               	movlw	0
  6561  0086  05BA               	andwf	(___ftmul@f2+2),f
  6562                           	line	68
  6563                           	
  6564  0087                     l8729:	
  6565  0087  3000               	movlw	0
  6566  0088  00C0               	movwf	(___ftmul@f3_as_product)
  6567  0089  3000               	movlw	0
  6568  008A  00C1               	movwf	(___ftmul@f3_as_product+1)
  6569  008B  3000               	movlw	0
  6570  008C  00C2               	movwf	(___ftmul@f3_as_product+2)
  6571                           	line	69
  6572                           	
  6573  008D                     l8731:	
  6574  008D  3007               	movlw	(07h)
  6575  008E  00BB               	movwf	(??___ftmul+0)+0
  6576  008F  083B               	movf	(??___ftmul+0)+0,w
  6577  0090  00C3               	movwf	(___ftmul@cntr)
  6578  0091  2892               	goto	l8733
  6579                           	line	70
  6580                           	
  6581  0092                     l5168:	
  6582                           	line	71
  6583                           	
  6584  0092                     l8733:	
  6585  0092  1C35               	btfss	(___ftmul@f1),(0)&7
  6586  0093  2895               	goto	u4441
  6587  0094  2896               	goto	u4440
  6588  0095                     u4441:
  6589  0095  28A7               	goto	l8737
  6590  0096                     u4440:
  6591                           	line	72
  6592                           	
  6593  0096                     l8735:	
  6594  0096  0838               	movf	(___ftmul@f2),w
  6595  0097  07C0               	addwf	(___ftmul@f3_as_product),f
  6596  0098  0839               	movf	(___ftmul@f2+1),w
  6597  0099  1103               	clrz
  6598  009A  1803               	skipnc
  6599  009B  0A39               	incf	(___ftmul@f2+1),w
  6600  009C  1903               	skipnz
  6601  009D  289F               	goto	u4451
  6602  009E  07C1               	addwf	(___ftmul@f3_as_product+1),f
  6603  009F                     u4451:
  6604  009F  083A               	movf	(___ftmul@f2+2),w
  6605  00A0  1103               	clrz
  6606  00A1  1803               	skipnc
  6607  00A2  0A3A               	incf	(___ftmul@f2+2),w
  6608  00A3  1903               	skipnz
  6609  00A4  28A6               	goto	u4452
  6610  00A5  07C2               	addwf	(___ftmul@f3_as_product+2),f
  6611  00A6                     u4452:
  6612                           
  6613  00A6  28A7               	goto	l8737
  6614                           	
  6615  00A7                     l5169:	
  6616                           	line	73
  6617                           	
  6618  00A7                     l8737:	
  6619  00A7  3001               	movlw	01h
  6620  00A8                     u4465:
  6621  00A8  1003               	clrc
  6622  00A9  0CB7               	rrf	(___ftmul@f1+2),f
  6623  00AA  0CB6               	rrf	(___ftmul@f1+1),f
  6624  00AB  0CB5               	rrf	(___ftmul@f1),f
  6625  00AC  3EFF               	addlw	-1
  6626  00AD  1D03               	skipz
  6627  00AE  28A8               	goto	u4465
  6628                           
  6629                           	line	74
  6630                           	
  6631  00AF                     l8739:	
  6632  00AF  3001               	movlw	01h
  6633  00B0                     u4475:
  6634  00B0  1003               	clrc
  6635  00B1  0DB8               	rlf	(___ftmul@f2),f
  6636  00B2  0DB9               	rlf	(___ftmul@f2+1),f
  6637  00B3  0DBA               	rlf	(___ftmul@f2+2),f
  6638  00B4  3EFF               	addlw	-1
  6639  00B5  1D03               	skipz
  6640  00B6  28B0               	goto	u4475
  6641                           	line	75
  6642                           	
  6643  00B7                     l8741:	
  6644  00B7  3001               	movlw	low(01h)
  6645  00B8  02C3               	subwf	(___ftmul@cntr),f
  6646  00B9  1D03               	btfss	status,2
  6647  00BA  28BC               	goto	u4481
  6648  00BB  28BD               	goto	u4480
  6649  00BC                     u4481:
  6650  00BC  2892               	goto	l8733
  6651  00BD                     u4480:
  6652  00BD  28BE               	goto	l8743
  6653                           	
  6654  00BE                     l5170:	
  6655                           	line	76
  6656                           	
  6657  00BE                     l8743:	
  6658  00BE  3009               	movlw	(09h)
  6659  00BF  00BB               	movwf	(??___ftmul+0)+0
  6660  00C0  083B               	movf	(??___ftmul+0)+0,w
  6661  00C1  00C3               	movwf	(___ftmul@cntr)
  6662  00C2  28C3               	goto	l8745
  6663                           	line	77
  6664                           	
  6665  00C3                     l5171:	
  6666                           	line	78
  6667                           	
  6668  00C3                     l8745:	
  6669  00C3  1C35               	btfss	(___ftmul@f1),(0)&7
  6670  00C4  28C6               	goto	u4491
  6671  00C5  28C7               	goto	u4490
  6672  00C6                     u4491:
  6673  00C6  28D8               	goto	l8749
  6674  00C7                     u4490:
  6675                           	line	79
  6676                           	
  6677  00C7                     l8747:	
  6678  00C7  0838               	movf	(___ftmul@f2),w
  6679  00C8  07C0               	addwf	(___ftmul@f3_as_product),f
  6680  00C9  0839               	movf	(___ftmul@f2+1),w
  6681  00CA  1103               	clrz
  6682  00CB  1803               	skipnc
  6683  00CC  0A39               	incf	(___ftmul@f2+1),w
  6684  00CD  1903               	skipnz
  6685  00CE  28D0               	goto	u4501
  6686  00CF  07C1               	addwf	(___ftmul@f3_as_product+1),f
  6687  00D0                     u4501:
  6688  00D0  083A               	movf	(___ftmul@f2+2),w
  6689  00D1  1103               	clrz
  6690  00D2  1803               	skipnc
  6691  00D3  0A3A               	incf	(___ftmul@f2+2),w
  6692  00D4  1903               	skipnz
  6693  00D5  28D7               	goto	u4502
  6694  00D6  07C2               	addwf	(___ftmul@f3_as_product+2),f
  6695  00D7                     u4502:
  6696                           
  6697  00D7  28D8               	goto	l8749
  6698                           	
  6699  00D8                     l5172:	
  6700                           	line	80
  6701                           	
  6702  00D8                     l8749:	
  6703  00D8  3001               	movlw	01h
  6704  00D9                     u4515:
  6705  00D9  1003               	clrc
  6706  00DA  0CB7               	rrf	(___ftmul@f1+2),f
  6707  00DB  0CB6               	rrf	(___ftmul@f1+1),f
  6708  00DC  0CB5               	rrf	(___ftmul@f1),f
  6709  00DD  3EFF               	addlw	-1
  6710  00DE  1D03               	skipz
  6711  00DF  28D9               	goto	u4515
  6712                           
  6713                           	line	81
  6714                           	
  6715  00E0                     l8751:	
  6716  00E0  3001               	movlw	01h
  6717  00E1                     u4525:
  6718  00E1  1003               	clrc
  6719  00E2  0CC2               	rrf	(___ftmul@f3_as_product+2),f
  6720  00E3  0CC1               	rrf	(___ftmul@f3_as_product+1),f
  6721  00E4  0CC0               	rrf	(___ftmul@f3_as_product),f
  6722  00E5  3EFF               	addlw	-1
  6723  00E6  1D03               	skipz
  6724  00E7  28E1               	goto	u4525
  6725                           
  6726                           	line	82
  6727                           	
  6728  00E8                     l8753:	
  6729  00E8  3001               	movlw	low(01h)
  6730  00E9  02C3               	subwf	(___ftmul@cntr),f
  6731  00EA  1D03               	btfss	status,2
  6732  00EB  28ED               	goto	u4531
  6733  00EC  28EE               	goto	u4530
  6734  00ED                     u4531:
  6735  00ED  28C3               	goto	l8745
  6736  00EE                     u4530:
  6737  00EE  28EF               	goto	l8755
  6738                           	
  6739  00EF                     l5173:	
  6740                           	line	83
  6741                           	
  6742  00EF                     l8755:	
  6743  00EF  0840               	movf	(___ftmul@f3_as_product),w
  6744  00F0  00F0               	movwf	(?___ftpack)
  6745  00F1  0841               	movf	(___ftmul@f3_as_product+1),w
  6746  00F2  00F1               	movwf	(?___ftpack+1)
  6747  00F3  0842               	movf	(___ftmul@f3_as_product+2),w
  6748  00F4  00F2               	movwf	(?___ftpack+2)
  6749  00F5  083F               	movf	(___ftmul@exp),w
  6750  00F6  00BB               	movwf	(??___ftmul+0)+0
  6751  00F7  083B               	movf	(??___ftmul+0)+0,w
  6752  00F8  00F3               	movwf	0+(?___ftpack)+03h
  6753  00F9  0844               	movf	(___ftmul@sign),w
  6754  00FA  00BC               	movwf	(??___ftmul+1)+0
  6755  00FB  083C               	movf	(??___ftmul+1)+0,w
  6756  00FC  00F4               	movwf	0+(?___ftpack)+04h
  6757  00FD  160A  118A  2445   	fcall	___ftpack
              120A  118A         
  6758  0102  0870               	movf	(0+(?___ftpack)),w
  6759  0103  1283               	bcf	status, 5	;RP0=0, select bank0
  6760  0104  1303               	bcf	status, 6	;RP1=0, select bank0
  6761  0105  00B5               	movwf	(?___ftmul)
  6762  0106  0871               	movf	(1+(?___ftpack)),w
  6763  0107  00B6               	movwf	(?___ftmul+1)
  6764  0108  0872               	movf	(2+(?___ftpack)),w
  6765  0109  00B7               	movwf	(?___ftmul+2)
  6766  010A  290B               	goto	l5166
  6767                           	
  6768  010B                     l8757:	
  6769                           	line	84
  6770                           	
  6771  010B                     l5166:	
  6772  010B  0008               	return
  6773                           	opt stack 0
  6774                           GLOBAL	__end_of___ftmul
  6775  010C                     	__end_of___ftmul:
  6776 ;; =============== function ___ftmul ends ============
  6777                           
  6778                           	signat	___ftmul,8315
  6779                           	global	___ftadd
  6780                           psect	text610,local,class=CODE,delta=2
  6781                           global __ptext610
  6782  1566                     __ptext610:
  6783                           
  6784 ;; *************** function ___ftadd *****************
  6785 ;; Defined at:
  6786 ;;		line 87 in file "C:\Program Files (x86)\HI-TECH Software\PICC\9.82\sources\ftadd.c"
  6787 ;; Parameters:    Size  Location     Type
  6788 ;;  f1              3   37[BANK0 ] float 
  6789 ;;  f2              3   40[BANK0 ] float 
  6790 ;; Auto vars:     Size  Location     Type
  6791 ;;  exp1            1   49[BANK0 ] unsigned char 
  6792 ;;  exp2            1   48[BANK0 ] unsigned char 
  6793 ;;  sign            1   47[BANK0 ] unsigned char 
  6794 ;; Return value:  Size  Location     Type
  6795 ;;                  3   37[BANK0 ] float 
  6796 ;; Registers used:
  6797 ;;		wreg, status,2, status,0, pclath, cstack
  6798 ;; Tracked objects:
  6799 ;;		On entry : 0/0
  6800 ;;		On exit  : 0/0
  6801 ;;		Unchanged: 0/0
  6802 ;; Data sizes:     COMMON   BANK0   BANK1   BANK3   BANK2
  6803 ;;      Params:         0       6       0       0       0
  6804 ;;      Locals:         0       3       0       0       0
  6805 ;;      Temps:          0       4       0       0       0
  6806 ;;      Totals:         0      13       0       0       0
  6807 ;;Total ram usage:       13 bytes
  6808 ;; Hardware stack levels used:    1
  6809 ;; Hardware stack levels required when called:    1
  6810 ;; This function calls:
  6811 ;;		___ftpack
  6812 ;; This function is called by:
  6813 ;;		_sprintf
  6814 ;;		___ftsub
  6815 ;; This function uses a non-reentrant model
  6816 ;;
  6817                           psect	text610
  6818                           	file	"C:\Program Files (x86)\HI-TECH Software\PICC\9.82\sources\ftadd.c"
  6819                           	line	87
  6820                           	global	__size_of___ftadd
  6821  0146                     	__size_of___ftadd	equ	__end_of___ftadd-___ftadd
  6822                           	
  6823  1566                     ___ftadd:	
  6824                           	opt	stack 4
  6825                           ; Regs used in ___ftadd: [wreg+status,2+status,0+pclath+cstack]
  6826                           	line	90
  6827                           	
  6828  1566                     l8639:	
  6829  1566  1283               	bcf	status, 5	;RP0=0, select bank0
  6830  1567  1303               	bcf	status, 6	;RP1=0, select bank0
  6831  1568  0845               	movf	(___ftadd@f1),w
  6832  1569  00CB               	movwf	((??___ftadd+0)+0)
  6833  156A  0846               	movf	(___ftadd@f1+1),w
  6834  156B  00CC               	movwf	((??___ftadd+0)+0+1)
  6835  156C  0847               	movf	(___ftadd@f1+2),w
  6836  156D  00CD               	movwf	((??___ftadd+0)+0+2)
  6837  156E  1003               	clrc
  6838  156F  0D4C               	rlf	(??___ftadd+0)+1,w
  6839  1570  0D4D               	rlf	(??___ftadd+0)+2,w
  6840  1571  00CE               	movwf	(??___ftadd+3)+0
  6841  1572  084E               	movf	(??___ftadd+3)+0,w
  6842  1573  00D1               	movwf	(___ftadd@exp1)
  6843                           	line	91
  6844  1574  0848               	movf	(___ftadd@f2),w
  6845  1575  00CB               	movwf	((??___ftadd+0)+0)
  6846  1576  0849               	movf	(___ftadd@f2+1),w
  6847  1577  00CC               	movwf	((??___ftadd+0)+0+1)
  6848  1578  084A               	movf	(___ftadd@f2+2),w
  6849  1579  00CD               	movwf	((??___ftadd+0)+0+2)
  6850  157A  1003               	clrc
  6851  157B  0D4C               	rlf	(??___ftadd+0)+1,w
  6852  157C  0D4D               	rlf	(??___ftadd+0)+2,w
  6853  157D  00CE               	movwf	(??___ftadd+3)+0
  6854  157E  084E               	movf	(??___ftadd+3)+0,w
  6855  157F  00D0               	movwf	(___ftadd@exp2)
  6856                           	line	92
  6857                           	
  6858  1580                     l8641:	
  6859  1580  0851               	movf	(___ftadd@exp1),w
  6860  1581  1D03               	skipz
  6861  1582  2D84               	goto	u4160
  6862  1583  2D95               	goto	l8647
  6863  1584                     u4160:
  6864                           	
  6865  1584                     l8643:	
  6866  1584  0850               	movf	(___ftadd@exp2),w
  6867  1585  0251               	subwf	(___ftadd@exp1),w
  6868  1586  1803               	skipnc
  6869  1587  2D89               	goto	u4171
  6870  1588  2D8A               	goto	u4170
  6871  1589                     u4171:
  6872  1589  2D9D               	goto	l8651
  6873  158A                     u4170:
  6874                           	
  6875  158A                     l8645:	
  6876  158A  0351               	decf	(___ftadd@exp1),w
  6877  158B  3AFF               	xorlw	0ffh
  6878  158C  0750               	addwf	(___ftadd@exp2),w
  6879  158D  00CB               	movwf	(??___ftadd+0)+0
  6880  158E  3019               	movlw	(019h)
  6881  158F  024B               	subwf	0+(??___ftadd+0)+0,w
  6882  1590  1C03               	skipc
  6883  1591  2D93               	goto	u4181
  6884  1592  2D94               	goto	u4180
  6885  1593                     u4181:
  6886  1593  2D9D               	goto	l8651
  6887  1594                     u4180:
  6888  1594  2D95               	goto	l8647
  6889                           	
  6890  1595                     l5113:	
  6891                           	line	93
  6892                           	
  6893  1595                     l8647:	
  6894  1595  0848               	movf	(___ftadd@f2),w
  6895  1596  00C5               	movwf	(?___ftadd)
  6896  1597  0849               	movf	(___ftadd@f2+1),w
  6897  1598  00C6               	movwf	(?___ftadd+1)
  6898  1599  084A               	movf	(___ftadd@f2+2),w
  6899  159A  00C7               	movwf	(?___ftadd+2)
  6900  159B  2EAB               	goto	l5114
  6901                           	
  6902  159C                     l8649:	
  6903  159C  2EAB               	goto	l5114
  6904                           	
  6905  159D                     l5111:	
  6906                           	line	94
  6907                           	
  6908  159D                     l8651:	
  6909  159D  0850               	movf	(___ftadd@exp2),w
  6910  159E  1D03               	skipz
  6911  159F  2DA1               	goto	u4190
  6912  15A0  2DB1               	goto	l5117
  6913  15A1                     u4190:
  6914                           	
  6915  15A1                     l8653:	
  6916  15A1  0851               	movf	(___ftadd@exp1),w
  6917  15A2  0250               	subwf	(___ftadd@exp2),w
  6918  15A3  1803               	skipnc
  6919  15A4  2DA6               	goto	u4201
  6920  15A5  2DA7               	goto	u4200
  6921  15A6                     u4201:
  6922  15A6  2DB2               	goto	l8657
  6923  15A7                     u4200:
  6924                           	
  6925  15A7                     l8655:	
  6926  15A7  0350               	decf	(___ftadd@exp2),w
  6927  15A8  3AFF               	xorlw	0ffh
  6928  15A9  0751               	addwf	(___ftadd@exp1),w
  6929  15AA  00CB               	movwf	(??___ftadd+0)+0
  6930  15AB  3019               	movlw	(019h)
  6931  15AC  024B               	subwf	0+(??___ftadd+0)+0,w
  6932  15AD  1C03               	skipc
  6933  15AE  2DB0               	goto	u4211
  6934  15AF  2DB1               	goto	u4210
  6935  15B0                     u4211:
  6936  15B0  2DB2               	goto	l8657
  6937  15B1                     u4210:
  6938                           	
  6939  15B1                     l5117:	
  6940                           	line	95
  6941  15B1  2EAB               	goto	l5114
  6942                           	
  6943  15B2                     l5115:	
  6944                           	line	96
  6945                           	
  6946  15B2                     l8657:	
  6947  15B2  3006               	movlw	(06h)
  6948  15B3  00CB               	movwf	(??___ftadd+0)+0
  6949  15B4  084B               	movf	(??___ftadd+0)+0,w
  6950  15B5  00CF               	movwf	(___ftadd@sign)
  6951                           	line	97
  6952                           	
  6953  15B6                     l8659:	
  6954  15B6  1FC7               	btfss	(___ftadd@f1+2),(23)&7
  6955  15B7  2DB9               	goto	u4221
  6956  15B8  2DBA               	goto	u4220
  6957  15B9                     u4221:
  6958  15B9  2DBB               	goto	l5118
  6959  15BA                     u4220:
  6960                           	line	98
  6961                           	
  6962  15BA                     l8661:	
  6963  15BA  17CF               	bsf	(___ftadd@sign)+(7/8),(7)&7
  6964                           	
  6965  15BB                     l5118:	
  6966                           	line	99
  6967  15BB  1FCA               	btfss	(___ftadd@f2+2),(23)&7
  6968  15BC  2DBE               	goto	u4231
  6969  15BD  2DBF               	goto	u4230
  6970  15BE                     u4231:
  6971  15BE  2DC0               	goto	l5119
  6972  15BF                     u4230:
  6973                           	line	100
  6974                           	
  6975  15BF                     l8663:	
  6976  15BF  174F               	bsf	(___ftadd@sign)+(6/8),(6)&7
  6977                           	
  6978  15C0                     l5119:	
  6979                           	line	101
  6980  15C0  17C6               	bsf	(___ftadd@f1)+(15/8),(15)&7
  6981                           	line	102
  6982                           	
  6983  15C1                     l8665:	
  6984  15C1  30FF               	movlw	0FFh
  6985  15C2  05C5               	andwf	(___ftadd@f1),f
  6986  15C3  30FF               	movlw	0FFh
  6987  15C4  05C6               	andwf	(___ftadd@f1+1),f
  6988  15C5  3000               	movlw	0
  6989  15C6  05C7               	andwf	(___ftadd@f1+2),f
  6990                           	line	103
  6991                           	
  6992  15C7                     l8667:	
  6993  15C7  17C9               	bsf	(___ftadd@f2)+(15/8),(15)&7
  6994                           	line	104
  6995  15C8  30FF               	movlw	0FFh
  6996  15C9  05C8               	andwf	(___ftadd@f2),f
  6997  15CA  30FF               	movlw	0FFh
  6998  15CB  05C9               	andwf	(___ftadd@f2+1),f
  6999  15CC  3000               	movlw	0
  7000  15CD  05CA               	andwf	(___ftadd@f2+2),f
  7001                           	line	106
  7002  15CE  0850               	movf	(___ftadd@exp2),w
  7003  15CF  0251               	subwf	(___ftadd@exp1),w
  7004  15D0  1803               	skipnc
  7005  15D1  2DD3               	goto	u4241
  7006  15D2  2DD4               	goto	u4240
  7007  15D3                     u4241:
  7008  15D3  2E05               	goto	l8679
  7009  15D4                     u4240:
  7010  15D4  2DD5               	goto	l8669
  7011                           	line	109
  7012                           	
  7013  15D5                     l5121:	
  7014                           	line	110
  7015                           	
  7016  15D5                     l8669:	
  7017  15D5  3001               	movlw	01h
  7018  15D6                     u4255:
  7019  15D6  1003               	clrc
  7020  15D7  0DC8               	rlf	(___ftadd@f2),f
  7021  15D8  0DC9               	rlf	(___ftadd@f2+1),f
  7022  15D9  0DCA               	rlf	(___ftadd@f2+2),f
  7023  15DA  3EFF               	addlw	-1
  7024  15DB  1D03               	skipz
  7025  15DC  2DD6               	goto	u4255
  7026                           	line	111
  7027  15DD  3001               	movlw	low(01h)
  7028  15DE  02D0               	subwf	(___ftadd@exp2),f
  7029                           	line	112
  7030                           	
  7031  15DF                     l8671:	
  7032  15DF  0850               	movf	(___ftadd@exp2),w
  7033  15E0  0651               	xorwf	(___ftadd@exp1),w
  7034  15E1  1903               	skipnz
  7035  15E2  2DE4               	goto	u4261
  7036  15E3  2DE5               	goto	u4260
  7037  15E4                     u4261:
  7038  15E4  2DFD               	goto	l8677
  7039  15E5                     u4260:
  7040                           	
  7041  15E5                     l8673:	
  7042  15E5  3001               	movlw	low(01h)
  7043  15E6  02CF               	subwf	(___ftadd@sign),f
  7044  15E7  084F               	movf	((___ftadd@sign)),w
  7045  15E8  3907               	andlw	07h
  7046  15E9  1D03               	btfss	status,2
  7047  15EA  2DEC               	goto	u4271
  7048  15EB  2DED               	goto	u4270
  7049  15EC                     u4271:
  7050  15EC  2DD5               	goto	l8669
  7051  15ED                     u4270:
  7052  15ED  2DFD               	goto	l8677
  7053                           	
  7054  15EE                     l5123:	
  7055  15EE  2DFD               	goto	l8677
  7056                           	
  7057  15EF                     l5124:	
  7058                           	line	113
  7059  15EF  2DFD               	goto	l8677
  7060                           	
  7061  15F0                     l5126:	
  7062                           	line	114
  7063                           	
  7064  15F0                     l8675:	
  7065  15F0  3001               	movlw	01h
  7066  15F1                     u4285:
  7067  15F1  1003               	clrc
  7068  15F2  0CC7               	rrf	(___ftadd@f1+2),f
  7069  15F3  0CC6               	rrf	(___ftadd@f1+1),f
  7070  15F4  0CC5               	rrf	(___ftadd@f1),f
  7071  15F5  3EFF               	addlw	-1
  7072  15F6  1D03               	skipz
  7073  15F7  2DF1               	goto	u4285
  7074                           
  7075                           	line	115
  7076  15F8  3001               	movlw	(01h)
  7077  15F9  00CB               	movwf	(??___ftadd+0)+0
  7078  15FA  084B               	movf	(??___ftadd+0)+0,w
  7079  15FB  07D1               	addwf	(___ftadd@exp1),f
  7080  15FC  2DFD               	goto	l8677
  7081                           	line	116
  7082                           	
  7083  15FD                     l5125:	
  7084                           	line	113
  7085                           	
  7086  15FD                     l8677:	
  7087  15FD  0851               	movf	(___ftadd@exp1),w
  7088  15FE  0650               	xorwf	(___ftadd@exp2),w
  7089  15FF  1D03               	skipz
  7090  1600  2E02               	goto	u4291
  7091  1601  2E03               	goto	u4290
  7092  1602                     u4291:
  7093  1602  2DF0               	goto	l8675
  7094  1603                     u4290:
  7095  1603  2E3C               	goto	l5128
  7096                           	
  7097  1604                     l5127:	
  7098                           	line	117
  7099  1604  2E3C               	goto	l5128
  7100                           	
  7101  1605                     l5120:	
  7102                           	
  7103  1605                     l8679:	
  7104  1605  0851               	movf	(___ftadd@exp1),w
  7105  1606  0250               	subwf	(___ftadd@exp2),w
  7106  1607  1803               	skipnc
  7107  1608  2E0A               	goto	u4301
  7108  1609  2E0B               	goto	u4300
  7109  160A                     u4301:
  7110  160A  2E3C               	goto	l5128
  7111  160B                     u4300:
  7112  160B  2E0C               	goto	l8681
  7113                           	line	120
  7114                           	
  7115  160C                     l5130:	
  7116                           	line	121
  7117                           	
  7118  160C                     l8681:	
  7119  160C  3001               	movlw	01h
  7120  160D                     u4315:
  7121  160D  1003               	clrc
  7122  160E  0DC5               	rlf	(___ftadd@f1),f
  7123  160F  0DC6               	rlf	(___ftadd@f1+1),f
  7124  1610  0DC7               	rlf	(___ftadd@f1+2),f
  7125  1611  3EFF               	addlw	-1
  7126  1612  1D03               	skipz
  7127  1613  2E0D               	goto	u4315
  7128                           	line	122
  7129  1614  3001               	movlw	low(01h)
  7130  1615  02D1               	subwf	(___ftadd@exp1),f
  7131                           	line	123
  7132                           	
  7133  1616                     l8683:	
  7134  1616  0850               	movf	(___ftadd@exp2),w
  7135  1617  0651               	xorwf	(___ftadd@exp1),w
  7136  1618  1903               	skipnz
  7137  1619  2E1B               	goto	u4321
  7138  161A  2E1C               	goto	u4320
  7139  161B                     u4321:
  7140  161B  2E34               	goto	l8689
  7141  161C                     u4320:
  7142                           	
  7143  161C                     l8685:	
  7144  161C  3001               	movlw	low(01h)
  7145  161D  02CF               	subwf	(___ftadd@sign),f
  7146  161E  084F               	movf	((___ftadd@sign)),w
  7147  161F  3907               	andlw	07h
  7148  1620  1D03               	btfss	status,2
  7149  1621  2E23               	goto	u4331
  7150  1622  2E24               	goto	u4330
  7151  1623                     u4331:
  7152  1623  2E0C               	goto	l8681
  7153  1624                     u4330:
  7154  1624  2E34               	goto	l8689
  7155                           	
  7156  1625                     l5132:	
  7157  1625  2E34               	goto	l8689
  7158                           	
  7159  1626                     l5133:	
  7160                           	line	124
  7161  1626  2E34               	goto	l8689
  7162                           	
  7163  1627                     l5135:	
  7164                           	line	125
  7165                           	
  7166  1627                     l8687:	
  7167  1627  3001               	movlw	01h
  7168  1628                     u4345:
  7169  1628  1003               	clrc
  7170  1629  0CCA               	rrf	(___ftadd@f2+2),f
  7171  162A  0CC9               	rrf	(___ftadd@f2+1),f
  7172  162B  0CC8               	rrf	(___ftadd@f2),f
  7173  162C  3EFF               	addlw	-1
  7174  162D  1D03               	skipz
  7175  162E  2E28               	goto	u4345
  7176                           
  7177                           	line	126
  7178  162F  3001               	movlw	(01h)
  7179  1630  00CB               	movwf	(??___ftadd+0)+0
  7180  1631  084B               	movf	(??___ftadd+0)+0,w
  7181  1632  07D0               	addwf	(___ftadd@exp2),f
  7182  1633  2E34               	goto	l8689
  7183                           	line	127
  7184                           	
  7185  1634                     l5134:	
  7186                           	line	124
  7187                           	
  7188  1634                     l8689:	
  7189  1634  0851               	movf	(___ftadd@exp1),w
  7190  1635  0650               	xorwf	(___ftadd@exp2),w
  7191  1636  1D03               	skipz
  7192  1637  2E39               	goto	u4351
  7193  1638  2E3A               	goto	u4350
  7194  1639                     u4351:
  7195  1639  2E27               	goto	l8687
  7196  163A                     u4350:
  7197  163A  2E3C               	goto	l5128
  7198                           	
  7199  163B                     l5136:	
  7200  163B  2E3C               	goto	l5128
  7201                           	line	128
  7202                           	
  7203  163C                     l5129:	
  7204                           	line	129
  7205                           	
  7206  163C                     l5128:	
  7207  163C  1FCF               	btfss	(___ftadd@sign),(7)&7
  7208  163D  2E3F               	goto	u4361
  7209  163E  2E40               	goto	u4360
  7210  163F                     u4361:
  7211  163F  2E51               	goto	l8693
  7212  1640                     u4360:
  7213                           	line	131
  7214                           	
  7215  1640                     l8691:	
  7216  1640  30FF               	movlw	0FFh
  7217  1641  06C5               	xorwf	(___ftadd@f1),f
  7218  1642  30FF               	movlw	0FFh
  7219  1643  06C6               	xorwf	(___ftadd@f1+1),f
  7220  1644  30FF               	movlw	0FFh
  7221  1645  06C7               	xorwf	(___ftadd@f1+2),f
  7222                           	line	132
  7223  1646  3001               	movlw	01h
  7224  1647  07C5               	addwf	(___ftadd@f1),f
  7225  1648  3000               	movlw	0
  7226  1649  1803               	skipnc
  7227  164A  3001               movlw 1
  7228  164B  07C6               	addwf	(___ftadd@f1+1),f
  7229  164C  3000               	movlw	0
  7230  164D  1803               	skipnc
  7231  164E  3001               movlw 1
  7232  164F  07C7               	addwf	(___ftadd@f1+2),f
  7233  1650  2E51               	goto	l8693
  7234                           	line	133
  7235                           	
  7236  1651                     l5137:	
  7237                           	line	134
  7238                           	
  7239  1651                     l8693:	
  7240  1651  1F4F               	btfss	(___ftadd@sign),(6)&7
  7241  1652  2E54               	goto	u4371
  7242  1653  2E55               	goto	u4370
  7243  1654                     u4371:
  7244  1654  2E66               	goto	l8697
  7245  1655                     u4370:
  7246                           	line	136
  7247                           	
  7248  1655                     l8695:	
  7249  1655  30FF               	movlw	0FFh
  7250  1656  06C8               	xorwf	(___ftadd@f2),f
  7251  1657  30FF               	movlw	0FFh
  7252  1658  06C9               	xorwf	(___ftadd@f2+1),f
  7253  1659  30FF               	movlw	0FFh
  7254  165A  06CA               	xorwf	(___ftadd@f2+2),f
  7255                           	line	137
  7256  165B  3001               	movlw	01h
  7257  165C  07C8               	addwf	(___ftadd@f2),f
  7258  165D  3000               	movlw	0
  7259  165E  1803               	skipnc
  7260  165F  3001               movlw 1
  7261  1660  07C9               	addwf	(___ftadd@f2+1),f
  7262  1661  3000               	movlw	0
  7263  1662  1803               	skipnc
  7264  1663  3001               movlw 1
  7265  1664  07CA               	addwf	(___ftadd@f2+2),f
  7266  1665  2E66               	goto	l8697
  7267                           	line	138
  7268                           	
  7269  1666                     l5138:	
  7270                           	line	139
  7271                           	
  7272  1666                     l8697:	
  7273  1666  01CF               	clrf	(___ftadd@sign)
  7274                           	line	140
  7275  1667  0845               	movf	(___ftadd@f1),w
  7276  1668  07C8               	addwf	(___ftadd@f2),f
  7277  1669  0846               	movf	(___ftadd@f1+1),w
  7278  166A  1103               	clrz
  7279  166B  1803               	skipnc
  7280  166C  0A46               	incf	(___ftadd@f1+1),w
  7281  166D  1903               	skipnz
  7282  166E  2E70               	goto	u4381
  7283  166F  07C9               	addwf	(___ftadd@f2+1),f
  7284  1670                     u4381:
  7285  1670  0847               	movf	(___ftadd@f1+2),w
  7286  1671  1103               	clrz
  7287  1672  1803               	skipnc
  7288  1673  0A47               	incf	(___ftadd@f1+2),w
  7289  1674  1903               	skipnz
  7290  1675  2E77               	goto	u4382
  7291  1676  07CA               	addwf	(___ftadd@f2+2),f
  7292  1677                     u4382:
  7293                           
  7294                           	line	141
  7295                           	
  7296  1677                     l8699:	
  7297  1677  1FCA               	btfss	(___ftadd@f2+2),(23)&7
  7298  1678  2E7A               	goto	u4391
  7299  1679  2E7B               	goto	u4390
  7300  167A                     u4391:
  7301  167A  2E8F               	goto	l8705
  7302  167B                     u4390:
  7303                           	line	142
  7304                           	
  7305  167B                     l8701:	
  7306  167B  30FF               	movlw	0FFh
  7307  167C  06C8               	xorwf	(___ftadd@f2),f
  7308  167D  30FF               	movlw	0FFh
  7309  167E  06C9               	xorwf	(___ftadd@f2+1),f
  7310  167F  30FF               	movlw	0FFh
  7311  1680  06CA               	xorwf	(___ftadd@f2+2),f
  7312                           	line	143
  7313  1681  3001               	movlw	01h
  7314  1682  07C8               	addwf	(___ftadd@f2),f
  7315  1683  3000               	movlw	0
  7316  1684  1803               	skipnc
  7317  1685  3001               movlw 1
  7318  1686  07C9               	addwf	(___ftadd@f2+1),f
  7319  1687  3000               	movlw	0
  7320  1688  1803               	skipnc
  7321  1689  3001               movlw 1
  7322  168A  07CA               	addwf	(___ftadd@f2+2),f
  7323                           	line	144
  7324                           	
  7325  168B                     l8703:	
  7326  168B  01CF               	clrf	(___ftadd@sign)
  7327  168C  1403               	bsf	status,0
  7328  168D  0DCF               	rlf	(___ftadd@sign),f
  7329  168E  2E8F               	goto	l8705
  7330                           	line	145
  7331                           	
  7332  168F                     l5139:	
  7333                           	line	146
  7334                           	
  7335  168F                     l8705:	
  7336  168F  0848               	movf	(___ftadd@f2),w
  7337  1690  00F0               	movwf	(?___ftpack)
  7338  1691  0849               	movf	(___ftadd@f2+1),w
  7339  1692  00F1               	movwf	(?___ftpack+1)
  7340  1693  084A               	movf	(___ftadd@f2+2),w
  7341  1694  00F2               	movwf	(?___ftpack+2)
  7342  1695  0851               	movf	(___ftadd@exp1),w
  7343  1696  00CB               	movwf	(??___ftadd+0)+0
  7344  1697  084B               	movf	(??___ftadd+0)+0,w
  7345  1698  00F3               	movwf	0+(?___ftpack)+03h
  7346  1699  084F               	movf	(___ftadd@sign),w
  7347  169A  00CC               	movwf	(??___ftadd+1)+0
  7348  169B  084C               	movf	(??___ftadd+1)+0,w
  7349  169C  00F4               	movwf	0+(?___ftpack)+04h
  7350  169D  160A  118A  2445   	fcall	___ftpack
              160A  118A         
  7351  16A2  0870               	movf	(0+(?___ftpack)),w
  7352  16A3  1283               	bcf	status, 5	;RP0=0, select bank0
  7353  16A4  1303               	bcf	status, 6	;RP1=0, select bank0
  7354  16A5  00C5               	movwf	(?___ftadd)
  7355  16A6  0871               	movf	(1+(?___ftpack)),w
  7356  16A7  00C6               	movwf	(?___ftadd+1)
  7357  16A8  0872               	movf	(2+(?___ftpack)),w
  7358  16A9  00C7               	movwf	(?___ftadd+2)
  7359  16AA  2EAB               	goto	l5114
  7360                           	
  7361  16AB                     l8707:	
  7362                           	line	148
  7363                           	
  7364  16AB                     l5114:	
  7365  16AB  0008               	return
  7366                           	opt stack 0
  7367                           GLOBAL	__end_of___ftadd
  7368  16AC                     	__end_of___ftadd:
  7369 ;; =============== function ___ftadd ends ============
  7370                           
  7371                           	signat	___ftadd,8315
  7372                           	global	_pause
  7373                           psect	text611,local,class=CODE,delta=2
  7374                           global __ptext611
  7375  0003                     __ptext611:
  7376                           
  7377 ;; *************** function _pause *****************
  7378 ;; Defined at:
  7379 ;;		line 10 in file "C:\PIC_PROGS\C\PWM\pause.c"
  7380 ;; Parameters:    Size  Location     Type
  7381 ;;  usvalue         2    0[COMMON] unsigned short 
  7382 ;; Auto vars:     Size  Location     Type
  7383 ;;  x               2    2[COMMON] unsigned short 
  7384 ;; Return value:  Size  Location     Type
  7385 ;;		None               void
  7386 ;; Registers used:
  7387 ;;		wreg, status,2, status,0, pclath, cstack
  7388 ;; Tracked objects:
  7389 ;;		On entry : 0/0
  7390 ;;		On exit  : 0/0
  7391 ;;		Unchanged: 0/0
  7392 ;; Data sizes:     COMMON   BANK0   BANK1   BANK3   BANK2
  7393 ;;      Params:         2       0       0       0       0
  7394 ;;      Locals:         2       0       0       0       0
  7395 ;;      Temps:          0       0       0       0       0
  7396 ;;      Totals:         4       0       0       0       0
  7397 ;;Total ram usage:        4 bytes
  7398 ;; Hardware stack levels used:    1
  7399 ;; Hardware stack levels required when called:    1
  7400 ;; This function calls:
  7401 ;;		_msecbase
  7402 ;; This function is called by:
  7403 ;;		_main
  7404 ;;		_lcd_write
  7405 ;;		_lcd_clear
  7406 ;;		_lcd_init
  7407 ;; This function uses a non-reentrant model
  7408 ;;
  7409                           psect	text611
  7410                           	file	"C:\PIC_PROGS\C\PWM\pause.c"
  7411                           	line	10
  7412                           	global	__size_of_pause
  7413  001B                     	__size_of_pause	equ	__end_of_pause-_pause
  7414                           	
  7415  0003                     _pause:	
  7416                           	opt	stack 4
  7417                           ; Regs used in _pause: [wreg+status,2+status,0+pclath+cstack]
  7418                           	line	13
  7419                           	
  7420  0003                     l8631:	
  7421                           ;pause.c: 11: unsigned short x;
  7422                           ;pause.c: 13: for (x=0; x<=usvalue; x++)
  7423  0003  01F2               	clrf	(pause@x)
  7424  0004  01F3               	clrf	(pause@x+1)
  7425  0005  2812               	goto	l8637
  7426                           	line	14
  7427                           	
  7428  0006                     l3974:	
  7429                           	line	15
  7430                           	
  7431  0006                     l8633:	
  7432                           ;pause.c: 14: {
  7433                           ;pause.c: 15: msecbase();
  7434  0006  160A  118A  20A4   	fcall	_msecbase
              120A  118A         
  7435                           	line	13
  7436                           	
  7437  000B                     l8635:	
  7438  000B  3001               	movlw	low(01h)
  7439  000C  07F2               	addwf	(pause@x),f
  7440  000D  1803               	skipnc
  7441  000E  0AF3               	incf	(pause@x+1),f
  7442  000F  3000               	movlw	high(01h)
  7443  0010  07F3               	addwf	(pause@x+1),f
  7444  0011  2812               	goto	l8637
  7445                           	
  7446  0012                     l3973:	
  7447                           	
  7448  0012                     l8637:	
  7449  0012  0873               	movf	(pause@x+1),w
  7450  0013  0271               	subwf	(pause@usvalue+1),w
  7451  0014  1D03               	skipz
  7452  0015  2818               	goto	u4155
  7453  0016  0872               	movf	(pause@x),w
  7454  0017  0270               	subwf	(pause@usvalue),w
  7455  0018                     u4155:
  7456  0018  1803               	skipnc
  7457  0019  281B               	goto	u4151
  7458  001A  281C               	goto	u4150
  7459  001B                     u4151:
  7460  001B  2806               	goto	l8633
  7461  001C                     u4150:
  7462  001C  281D               	goto	l3976
  7463                           	
  7464  001D                     l3975:	
  7465                           	line	17
  7466                           	
  7467  001D                     l3976:	
  7468  001D  0008               	return
  7469                           	opt stack 0
  7470                           GLOBAL	__end_of_pause
  7471  001E                     	__end_of_pause:
  7472 ;; =============== function _pause ends ============
  7473                           
  7474                           	signat	_pause,4216
  7475                           	global	___awmod
  7476                           psect	text612,local,class=CODE,delta=2
  7477                           global __ptext612
  7478  128F                     __ptext612:
  7479                           
  7480 ;; *************** function ___awmod *****************
  7481 ;; Defined at:
  7482 ;;		line 5 in file "C:\Program Files (x86)\HI-TECH Software\PICC\9.82\sources\awmod.c"
  7483 ;; Parameters:    Size  Location     Type
  7484 ;;  divisor         2    0[COMMON] int 
  7485 ;;  dividend        2    2[COMMON] int 
  7486 ;; Auto vars:     Size  Location     Type
  7487 ;;  sign            1    6[COMMON] unsigned char 
  7488 ;;  counter         1    5[COMMON] unsigned char 
  7489 ;; Return value:  Size  Location     Type
  7490 ;;                  2    0[COMMON] int 
  7491 ;; Registers used:
  7492 ;;		wreg, status,2, status,0
  7493 ;; Tracked objects:
  7494 ;;		On entry : 0/0
  7495 ;;		On exit  : 0/0
  7496 ;;		Unchanged: 0/0
  7497 ;; Data sizes:     COMMON   BANK0   BANK1   BANK3   BANK2
  7498 ;;      Params:         4       0       0       0       0
  7499 ;;      Locals:         2       0       0       0       0
  7500 ;;      Temps:          1       0       0       0       0
  7501 ;;      Totals:         7       0       0       0       0
  7502 ;;Total ram usage:        7 bytes
  7503 ;; Hardware stack levels used:    1
  7504 ;; This function calls:
  7505 ;;		Nothing
  7506 ;; This function is called by:
  7507 ;;		_fround
  7508 ;;		_scale
  7509 ;; This function uses a non-reentrant model
  7510 ;;
  7511                           psect	text612
  7512                           	file	"C:\Program Files (x86)\HI-TECH Software\PICC\9.82\sources\awmod.c"
  7513                           	line	5
  7514                           	global	__size_of___awmod
  7515  0066                     	__size_of___awmod	equ	__end_of___awmod-___awmod
  7516                           	
  7517  128F                     ___awmod:	
  7518                           	opt	stack 5
  7519                           ; Regs used in ___awmod: [wreg+status,2+status,0]
  7520                           	line	8
  7521                           	
  7522  128F                     l8561:	
  7523  128F  01F6               	clrf	(___awmod@sign)
  7524                           	line	9
  7525  1290  1FF3               	btfss	(___awmod@dividend+1),7
  7526  1291  2A93               	goto	u4021
  7527  1292  2A94               	goto	u4020
  7528  1293                     u4021:
  7529  1293  2A9D               	goto	l8565
  7530  1294                     u4020:
  7531                           	line	10
  7532                           	
  7533  1294                     l8563:	
  7534  1294  09F2               	comf	(___awmod@dividend),f
  7535  1295  09F3               	comf	(___awmod@dividend+1),f
  7536  1296  0AF2               	incf	(___awmod@dividend),f
  7537  1297  1903               	skipnz
  7538  1298  0AF3               	incf	(___awmod@dividend+1),f
  7539                           	line	11
  7540  1299  01F6               	clrf	(___awmod@sign)
  7541  129A  1403               	bsf	status,0
  7542  129B  0DF6               	rlf	(___awmod@sign),f
  7543  129C  2A9D               	goto	l8565
  7544                           	line	12
  7545                           	
  7546  129D                     l5275:	
  7547                           	line	13
  7548                           	
  7549  129D                     l8565:	
  7550  129D  1FF1               	btfss	(___awmod@divisor+1),7
  7551  129E  2AA0               	goto	u4031
  7552  129F  2AA1               	goto	u4030
  7553  12A0                     u4031:
  7554  12A0  2AA7               	goto	l8569
  7555  12A1                     u4030:
  7556                           	line	14
  7557                           	
  7558  12A1                     l8567:	
  7559  12A1  09F0               	comf	(___awmod@divisor),f
  7560  12A2  09F1               	comf	(___awmod@divisor+1),f
  7561  12A3  0AF0               	incf	(___awmod@divisor),f
  7562  12A4  1903               	skipnz
  7563  12A5  0AF1               	incf	(___awmod@divisor+1),f
  7564  12A6  2AA7               	goto	l8569
  7565                           	
  7566  12A7                     l5276:	
  7567                           	line	15
  7568                           	
  7569  12A7                     l8569:	
  7570  12A7  0871               	movf	(___awmod@divisor+1),w
  7571  12A8  0470               	iorwf	(___awmod@divisor),w
  7572  12A9  1903               	skipnz
  7573  12AA  2AAC               	goto	u4041
  7574  12AB  2AAD               	goto	u4040
  7575  12AC                     u4041:
  7576  12AC  2AE3               	goto	l8587
  7577  12AD                     u4040:
  7578                           	line	16
  7579                           	
  7580  12AD                     l8571:	
  7581  12AD  01F5               	clrf	(___awmod@counter)
  7582  12AE  1403               	bsf	status,0
  7583  12AF  0DF5               	rlf	(___awmod@counter),f
  7584                           	line	17
  7585  12B0  2ABD               	goto	l8577
  7586                           	
  7587  12B1                     l5279:	
  7588                           	line	18
  7589                           	
  7590  12B1                     l8573:	
  7591  12B1  3001               	movlw	01h
  7592                           	
  7593  12B2                     u4055:
  7594  12B2  1003               	clrc
  7595  12B3  0DF0               	rlf	(___awmod@divisor),f
  7596  12B4  0DF1               	rlf	(___awmod@divisor+1),f
  7597  12B5  3EFF               	addlw	-1
  7598  12B6  1D03               	skipz
  7599  12B7  2AB2               	goto	u4055
  7600                           	line	19
  7601                           	
  7602  12B8                     l8575:	
  7603  12B8  3001               	movlw	(01h)
  7604  12B9  00F4               	movwf	(??___awmod+0)+0
  7605  12BA  0874               	movf	(??___awmod+0)+0,w
  7606  12BB  07F5               	addwf	(___awmod@counter),f
  7607  12BC  2ABD               	goto	l8577
  7608                           	line	20
  7609                           	
  7610  12BD                     l5278:	
  7611                           	line	17
  7612                           	
  7613  12BD                     l8577:	
  7614  12BD  1FF1               	btfss	(___awmod@divisor+1),(15)&7
  7615  12BE  2AC0               	goto	u4061
  7616  12BF  2AC1               	goto	u4060
  7617  12C0                     u4061:
  7618  12C0  2AB1               	goto	l8573
  7619  12C1                     u4060:
  7620  12C1  2AC3               	goto	l8579
  7621                           	
  7622  12C2                     l5280:	
  7623  12C2  2AC3               	goto	l8579
  7624                           	line	21
  7625                           	
  7626  12C3                     l5281:	
  7627                           	line	22
  7628                           	
  7629  12C3                     l8579:	
  7630  12C3  0871               	movf	(___awmod@divisor+1),w
  7631  12C4  0273               	subwf	(___awmod@dividend+1),w
  7632  12C5  1D03               	skipz
  7633  12C6  2AC9               	goto	u4075
  7634  12C7  0870               	movf	(___awmod@divisor),w
  7635  12C8  0272               	subwf	(___awmod@dividend),w
  7636  12C9                     u4075:
  7637  12C9  1C03               	skipc
  7638  12CA  2ACC               	goto	u4071
  7639  12CB  2ACD               	goto	u4070
  7640  12CC                     u4071:
  7641  12CC  2AD4               	goto	l8583
  7642  12CD                     u4070:
  7643                           	line	23
  7644                           	
  7645  12CD                     l8581:	
  7646  12CD  0870               	movf	(___awmod@divisor),w
  7647  12CE  02F2               	subwf	(___awmod@dividend),f
  7648  12CF  0871               	movf	(___awmod@divisor+1),w
  7649  12D0  1C03               	skipc
  7650  12D1  03F3               	decf	(___awmod@dividend+1),f
  7651  12D2  02F3               	subwf	(___awmod@dividend+1),f
  7652  12D3  2AD4               	goto	l8583
  7653                           	
  7654  12D4                     l5282:	
  7655                           	line	24
  7656                           	
  7657  12D4                     l8583:	
  7658  12D4  3001               	movlw	01h
  7659                           	
  7660  12D5                     u4085:
  7661  12D5  1003               	clrc
  7662  12D6  0CF1               	rrf	(___awmod@divisor+1),f
  7663  12D7  0CF0               	rrf	(___awmod@divisor),f
  7664  12D8  3EFF               	addlw	-1
  7665  12D9  1D03               	skipz
  7666  12DA  2AD5               	goto	u4085
  7667                           	line	25
  7668                           	
  7669  12DB                     l8585:	
  7670  12DB  3001               	movlw	low(01h)
  7671  12DC  02F5               	subwf	(___awmod@counter),f
  7672  12DD  1D03               	btfss	status,2
  7673  12DE  2AE0               	goto	u4091
  7674  12DF  2AE1               	goto	u4090
  7675  12E0                     u4091:
  7676  12E0  2AC3               	goto	l8579
  7677  12E1                     u4090:
  7678  12E1  2AE3               	goto	l8587
  7679                           	
  7680  12E2                     l5283:	
  7681  12E2  2AE3               	goto	l8587
  7682                           	line	26
  7683                           	
  7684  12E3                     l5277:	
  7685                           	line	27
  7686                           	
  7687  12E3                     l8587:	
  7688  12E3  0876               	movf	(___awmod@sign),w
  7689  12E4  1D03               	skipz
  7690  12E5  2AE7               	goto	u4100
  7691  12E6  2AED               	goto	l8591
  7692  12E7                     u4100:
  7693                           	line	28
  7694                           	
  7695  12E7                     l8589:	
  7696  12E7  09F2               	comf	(___awmod@dividend),f
  7697  12E8  09F3               	comf	(___awmod@dividend+1),f
  7698  12E9  0AF2               	incf	(___awmod@dividend),f
  7699  12EA  1903               	skipnz
  7700  12EB  0AF3               	incf	(___awmod@dividend+1),f
  7701  12EC  2AED               	goto	l8591
  7702                           	
  7703  12ED                     l5284:	
  7704                           	line	29
  7705                           	
  7706  12ED                     l8591:	
  7707  12ED  0873               	movf	(___awmod@dividend+1),w
  7708  12EE  01F1               	clrf	(?___awmod+1)
  7709  12EF  07F1               	addwf	(?___awmod+1)
  7710  12F0  0872               	movf	(___awmod@dividend),w
  7711  12F1  01F0               	clrf	(?___awmod)
  7712  12F2  07F0               	addwf	(?___awmod)
  7713                           
  7714  12F3  2AF4               	goto	l5285
  7715                           	
  7716  12F4                     l8593:	
  7717                           	line	30
  7718                           	
  7719  12F4                     l5285:	
  7720  12F4  0008               	return
  7721                           	opt stack 0
  7722                           GLOBAL	__end_of___awmod
  7723  12F5                     	__end_of___awmod:
  7724 ;; =============== function ___awmod ends ============
  7725                           
  7726                           	signat	___awmod,8314
  7727                           	global	___lldiv
  7728                           psect	text613,local,class=CODE,delta=2
  7729                           global __ptext613
  7730  1361                     __ptext613:
  7731                           
  7732 ;; *************** function ___lldiv *****************
  7733 ;; Defined at:
  7734 ;;		line 5 in file "C:\Program Files (x86)\HI-TECH Software\PICC\9.82\sources\lldiv.c"
  7735 ;; Parameters:    Size  Location     Type
  7736 ;;  divisor         4    0[COMMON] unsigned long 
  7737 ;;  dividend        4    4[COMMON] unsigned long 
  7738 ;; Auto vars:     Size  Location     Type
  7739 ;;  quotient        4    9[COMMON] unsigned long 
  7740 ;;  counter         1   13[COMMON] unsigned char 
  7741 ;; Return value:  Size  Location     Type
  7742 ;;                  4    0[COMMON] unsigned long 
  7743 ;; Registers used:
  7744 ;;		wreg, status,2, status,0
  7745 ;; Tracked objects:
  7746 ;;		On entry : 0/0
  7747 ;;		On exit  : 0/0
  7748 ;;		Unchanged: 0/0
  7749 ;; Data sizes:     COMMON   BANK0   BANK1   BANK3   BANK2
  7750 ;;      Params:         8       0       0       0       0
  7751 ;;      Locals:         5       0       0       0       0
  7752 ;;      Temps:          1       0       0       0       0
  7753 ;;      Totals:        14       0       0       0       0
  7754 ;;Total ram usage:       14 bytes
  7755 ;; Hardware stack levels used:    1
  7756 ;; This function calls:
  7757 ;;		Nothing
  7758 ;; This function is called by:
  7759 ;;		_sprintf
  7760 ;; This function uses a non-reentrant model
  7761 ;;
  7762                           psect	text613
  7763                           	file	"C:\Program Files (x86)\HI-TECH Software\PICC\9.82\sources\lldiv.c"
  7764                           	line	5
  7765                           	global	__size_of___lldiv
  7766  006E                     	__size_of___lldiv	equ	__end_of___lldiv-___lldiv
  7767                           	
  7768  1361                     ___lldiv:	
  7769                           	opt	stack 6
  7770                           ; Regs used in ___lldiv: [wreg+status,2+status,0]
  7771                           	line	9
  7772                           	
  7773  1361                     l8537:	
  7774  1361  3000               	movlw	0
  7775  1362  00FC               	movwf	(___lldiv@quotient+3)
  7776  1363  3000               	movlw	0
  7777  1364  00FB               	movwf	(___lldiv@quotient+2)
  7778  1365  3000               	movlw	0
  7779  1366  00FA               	movwf	(___lldiv@quotient+1)
  7780  1367  3000               	movlw	0
  7781  1368  00F9               	movwf	(___lldiv@quotient)
  7782                           
  7783                           	line	10
  7784  1369  0873               	movf	(___lldiv@divisor+3),w
  7785  136A  0472               	iorwf	(___lldiv@divisor+2),w
  7786  136B  0471               	iorwf	(___lldiv@divisor+1),w
  7787  136C  0470               	iorwf	(___lldiv@divisor),w
  7788  136D  1903               	skipnz
  7789  136E  2B70               	goto	u3951
  7790  136F  2B71               	goto	u3950
  7791  1370                     u3951:
  7792  1370  2BC5               	goto	l8557
  7793  1371                     u3950:
  7794                           	line	11
  7795                           	
  7796  1371                     l8539:	
  7797  1371  01FD               	clrf	(___lldiv@counter)
  7798  1372  1403               	bsf	status,0
  7799  1373  0DFD               	rlf	(___lldiv@counter),f
  7800                           	line	12
  7801  1374  2B83               	goto	l8543
  7802                           	
  7803  1375                     l5241:	
  7804                           	line	13
  7805                           	
  7806  1375                     l8541:	
  7807  1375  3001               	movlw	01h
  7808  1376  00F8               	movwf	(??___lldiv+0)+0
  7809  1377                     u3965:
  7810  1377  1003               	clrc
  7811  1378  0DF0               	rlf	(___lldiv@divisor),f
  7812  1379  0DF1               	rlf	(___lldiv@divisor+1),f
  7813  137A  0DF2               	rlf	(___lldiv@divisor+2),f
  7814  137B  0DF3               	rlf	(___lldiv@divisor+3),f
  7815  137C  0BF8               	decfsz	(??___lldiv+0)+0
  7816  137D  2B77               	goto	u3965
  7817                           	line	14
  7818  137E  3001               	movlw	(01h)
  7819  137F  00F8               	movwf	(??___lldiv+0)+0
  7820  1380  0878               	movf	(??___lldiv+0)+0,w
  7821  1381  07FD               	addwf	(___lldiv@counter),f
  7822  1382  2B83               	goto	l8543
  7823                           	line	15
  7824                           	
  7825  1383                     l5240:	
  7826                           	line	12
  7827                           	
  7828  1383                     l8543:	
  7829  1383  1FF3               	btfss	(___lldiv@divisor+3),(31)&7
  7830  1384  2B86               	goto	u3971
  7831  1385  2B87               	goto	u3970
  7832  1386                     u3971:
  7833  1386  2B75               	goto	l8541
  7834  1387                     u3970:
  7835  1387  2B89               	goto	l8545
  7836                           	
  7837  1388                     l5242:	
  7838  1388  2B89               	goto	l8545
  7839                           	line	16
  7840                           	
  7841  1389                     l5243:	
  7842                           	line	17
  7843                           	
  7844  1389                     l8545:	
  7845  1389  3001               	movlw	01h
  7846  138A  00F8               	movwf	(??___lldiv+0)+0
  7847  138B                     u3985:
  7848  138B  1003               	clrc
  7849  138C  0DF9               	rlf	(___lldiv@quotient),f
  7850  138D  0DFA               	rlf	(___lldiv@quotient+1),f
  7851  138E  0DFB               	rlf	(___lldiv@quotient+2),f
  7852  138F  0DFC               	rlf	(___lldiv@quotient+3),f
  7853  1390  0BF8               	decfsz	(??___lldiv+0)+0
  7854  1391  2B8B               	goto	u3985
  7855                           	line	18
  7856                           	
  7857  1392                     l8547:	
  7858  1392  0873               	movf	(___lldiv@divisor+3),w
  7859  1393  0277               	subwf	(___lldiv@dividend+3),w
  7860  1394  1D03               	skipz
  7861  1395  2BA0               	goto	u3995
  7862  1396  0872               	movf	(___lldiv@divisor+2),w
  7863  1397  0276               	subwf	(___lldiv@dividend+2),w
  7864  1398  1D03               	skipz
  7865  1399  2BA0               	goto	u3995
  7866  139A  0871               	movf	(___lldiv@divisor+1),w
  7867  139B  0275               	subwf	(___lldiv@dividend+1),w
  7868  139C  1D03               	skipz
  7869  139D  2BA0               	goto	u3995
  7870  139E  0870               	movf	(___lldiv@divisor),w
  7871  139F  0274               	subwf	(___lldiv@dividend),w
  7872  13A0                     u3995:
  7873  13A0  1C03               	skipc
  7874  13A1  2BA3               	goto	u3991
  7875  13A2  2BA4               	goto	u3990
  7876  13A3                     u3991:
  7877  13A3  2BB4               	goto	l8553
  7878  13A4                     u3990:
  7879                           	line	19
  7880                           	
  7881  13A4                     l8549:	
  7882  13A4  0870               	movf	(___lldiv@divisor),w
  7883  13A5  02F4               	subwf	(___lldiv@dividend),f
  7884  13A6  0871               	movf	(___lldiv@divisor+1),w
  7885  13A7  1C03               	skipc
  7886  13A8  0F71               	incfsz	(___lldiv@divisor+1),w
  7887  13A9  02F5               	subwf	(___lldiv@dividend+1),f
  7888  13AA  0872               	movf	(___lldiv@divisor+2),w
  7889  13AB  1C03               	skipc
  7890  13AC  0F72               	incfsz	(___lldiv@divisor+2),w
  7891  13AD  02F6               	subwf	(___lldiv@dividend+2),f
  7892  13AE  0873               	movf	(___lldiv@divisor+3),w
  7893  13AF  1C03               	skipc
  7894  13B0  0F73               	incfsz	(___lldiv@divisor+3),w
  7895  13B1  02F7               	subwf	(___lldiv@dividend+3),f
  7896                           	line	20
  7897                           	
  7898  13B2                     l8551:	
  7899  13B2  1479               	bsf	(___lldiv@quotient)+(0/8),(0)&7
  7900  13B3  2BB4               	goto	l8553
  7901                           	line	21
  7902                           	
  7903  13B4                     l5244:	
  7904                           	line	22
  7905                           	
  7906  13B4                     l8553:	
  7907  13B4  3001               	movlw	01h
  7908  13B5                     u4005:
  7909  13B5  1003               	clrc
  7910  13B6  0CF3               	rrf	(___lldiv@divisor+3),f
  7911  13B7  0CF2               	rrf	(___lldiv@divisor+2),f
  7912  13B8  0CF1               	rrf	(___lldiv@divisor+1),f
  7913  13B9  0CF0               	rrf	(___lldiv@divisor),f
  7914  13BA  3EFF               	addlw	-1
  7915  13BB  1D03               	skipz
  7916  13BC  2BB5               	goto	u4005
  7917                           
  7918                           	line	23
  7919                           	
  7920  13BD                     l8555:	
  7921  13BD  3001               	movlw	low(01h)
  7922  13BE  02FD               	subwf	(___lldiv@counter),f
  7923  13BF  1D03               	btfss	status,2
  7924  13C0  2BC2               	goto	u4011
  7925  13C1  2BC3               	goto	u4010
  7926  13C2                     u4011:
  7927  13C2  2B89               	goto	l8545
  7928  13C3                     u4010:
  7929  13C3  2BC5               	goto	l8557
  7930                           	
  7931  13C4                     l5245:	
  7932  13C4  2BC5               	goto	l8557
  7933                           	line	24
  7934                           	
  7935  13C5                     l5239:	
  7936                           	line	25
  7937                           	
  7938  13C5                     l8557:	
  7939  13C5  087C               	movf	(___lldiv@quotient+3),w
  7940  13C6  00F3               	movwf	(?___lldiv+3)
  7941  13C7  087B               	movf	(___lldiv@quotient+2),w
  7942  13C8  00F2               	movwf	(?___lldiv+2)
  7943  13C9  087A               	movf	(___lldiv@quotient+1),w
  7944  13CA  00F1               	movwf	(?___lldiv+1)
  7945  13CB  0879               	movf	(___lldiv@quotient),w
  7946  13CC  00F0               	movwf	(?___lldiv)
  7947                           
  7948  13CD  2BCE               	goto	l5246
  7949                           	
  7950  13CE                     l8559:	
  7951                           	line	26
  7952                           	
  7953  13CE                     l5246:	
  7954  13CE  0008               	return
  7955                           	opt stack 0
  7956                           GLOBAL	__end_of___lldiv
  7957  13CF                     	__end_of___lldiv:
  7958 ;; =============== function ___lldiv ends ============
  7959                           
  7960                           	signat	___lldiv,8316
  7961                           	global	___ftge
  7962                           psect	text614,local,class=CODE,delta=2
  7963                           global __ptext614
  7964  12F5                     __ptext614:
  7965                           
  7966 ;; *************** function ___ftge *****************
  7967 ;; Defined at:
  7968 ;;		line 5 in file "C:\Program Files (x86)\HI-TECH Software\PICC\9.82\sources\ftge.c"
  7969 ;; Parameters:    Size  Location     Type
  7970 ;;  ff1             3    0[COMMON] float 
  7971 ;;  ff2             3    3[COMMON] float 
  7972 ;; Auto vars:     Size  Location     Type
  7973 ;;		None
  7974 ;; Return value:  Size  Location     Type
  7975 ;;		None               void
  7976 ;; Registers used:
  7977 ;;		wreg, status,2, status,0
  7978 ;; Tracked objects:
  7979 ;;		On entry : 0/0
  7980 ;;		On exit  : 0/0
  7981 ;;		Unchanged: 0/0
  7982 ;; Data sizes:     COMMON   BANK0   BANK1   BANK3   BANK2
  7983 ;;      Params:         6       0       0       0       0
  7984 ;;      Locals:         0       0       0       0       0
  7985 ;;      Temps:          6       0       0       0       0
  7986 ;;      Totals:        12       0       0       0       0
  7987 ;;Total ram usage:       12 bytes
  7988 ;; Hardware stack levels used:    1
  7989 ;; This function calls:
  7990 ;;		Nothing
  7991 ;; This function is called by:
  7992 ;;		_sprintf
  7993 ;; This function uses a non-reentrant model
  7994 ;;
  7995                           psect	text614
  7996                           	file	"C:\Program Files (x86)\HI-TECH Software\PICC\9.82\sources\ftge.c"
  7997                           	line	5
  7998                           	global	__size_of___ftge
  7999  006C                     	__size_of___ftge	equ	__end_of___ftge-___ftge
  8000                           	
  8001  12F5                     ___ftge:	
  8002                           	opt	stack 6
  8003                           ; Regs used in ___ftge: [wreg+status,2+status,0]
  8004                           	line	6
  8005                           	
  8006  12F5                     l8517:	
  8007  12F5  1FF2               	btfss	(___ftge@ff1+2),(23)&7
  8008  12F6  2AF8               	goto	u3901
  8009  12F7  2AF9               	goto	u3900
  8010  12F8                     u3901:
  8011  12F8  2B1F               	goto	l8521
  8012  12F9                     u3900:
  8013                           	line	7
  8014                           	
  8015  12F9                     l8519:	
  8016  12F9  3000               	movlw	0
  8017  12FA  00F6               	movwf	((??___ftge+0)+0)
  8018  12FB  3000               	movlw	0
  8019  12FC  00F7               	movwf	((??___ftge+0)+0+1)
  8020  12FD  3080               	movlw	080h
  8021  12FE  00F8               	movwf	((??___ftge+0)+0+2)
  8022  12FF  0970               	comf	(___ftge@ff1),w
  8023  1300  00F9               	movwf	(??___ftge+3)+0
  8024  1301  0971               	comf	(___ftge@ff1+1),w
  8025  1302  00FA               	movwf	((??___ftge+3)+0+1)
  8026  1303  0972               	comf	(___ftge@ff1+2),w
  8027  1304  00FB               	movwf	((??___ftge+3)+0+2)
  8028  1305  0AF9               	incf	(??___ftge+3)+0,f
  8029  1306  1903               	skipnz
  8030  1307  0AFA               	incf	((??___ftge+3)+0+1),f
  8031  1308  1903               	skipnz
  8032  1309  0AFB               	incf	((??___ftge+3)+0+2),f
  8033  130A  0879               	movf	0+(??___ftge+3)+0,w
  8034  130B  07F6               	addwf	(??___ftge+0)+0,f
  8035  130C  087A               	movf	1+(??___ftge+3)+0,w
  8036  130D  1803               	skipnc
  8037  130E  0F7A               	incfsz	1+(??___ftge+3)+0,w
  8038  130F  2B11               	goto	u3911
  8039  1310  2B12               	goto	u3912
  8040  1311                     u3911:
  8041  1311  07F7               	addwf	(??___ftge+0)+1,f
  8042                           	
  8043  1312                     u3912:
  8044  1312  087B               	movf	2+(??___ftge+3)+0,w
  8045  1313  1803               	skipnc
  8046  1314  0F7B               	incfsz	2+(??___ftge+3)+0,w
  8047  1315  2B17               	goto	u3913
  8048  1316  2B18               	goto	u3914
  8049  1317                     u3913:
  8050  1317  07F8               	addwf	(??___ftge+0)+2,f
  8051                           	
  8052  1318                     u3914:
  8053  1318  0876               	movf	0+(??___ftge+0)+0,w
  8054  1319  00F0               	movwf	(___ftge@ff1)
  8055  131A  0877               	movf	1+(??___ftge+0)+0,w
  8056  131B  00F1               	movwf	(___ftge@ff1+1)
  8057  131C  0878               	movf	2+(??___ftge+0)+0,w
  8058  131D  00F2               	movwf	(___ftge@ff1+2)
  8059  131E  2B1F               	goto	l8521
  8060                           	
  8061  131F                     l5234:	
  8062                           	line	8
  8063                           	
  8064  131F                     l8521:	
  8065  131F  1FF5               	btfss	(___ftge@ff2+2),(23)&7
  8066  1320  2B22               	goto	u3921
  8067  1321  2B23               	goto	u3920
  8068  1322                     u3921:
  8069  1322  2B49               	goto	l8525
  8070  1323                     u3920:
  8071                           	line	9
  8072                           	
  8073  1323                     l8523:	
  8074  1323  3000               	movlw	0
  8075  1324  00F6               	movwf	((??___ftge+0)+0)
  8076  1325  3000               	movlw	0
  8077  1326  00F7               	movwf	((??___ftge+0)+0+1)
  8078  1327  3080               	movlw	080h
  8079  1328  00F8               	movwf	((??___ftge+0)+0+2)
  8080  1329  0973               	comf	(___ftge@ff2),w
  8081  132A  00F9               	movwf	(??___ftge+3)+0
  8082  132B  0974               	comf	(___ftge@ff2+1),w
  8083  132C  00FA               	movwf	((??___ftge+3)+0+1)
  8084  132D  0975               	comf	(___ftge@ff2+2),w
  8085  132E  00FB               	movwf	((??___ftge+3)+0+2)
  8086  132F  0AF9               	incf	(??___ftge+3)+0,f
  8087  1330  1903               	skipnz
  8088  1331  0AFA               	incf	((??___ftge+3)+0+1),f
  8089  1332  1903               	skipnz
  8090  1333  0AFB               	incf	((??___ftge+3)+0+2),f
  8091  1334  0879               	movf	0+(??___ftge+3)+0,w
  8092  1335  07F6               	addwf	(??___ftge+0)+0,f
  8093  1336  087A               	movf	1+(??___ftge+3)+0,w
  8094  1337  1803               	skipnc
  8095  1338  0F7A               	incfsz	1+(??___ftge+3)+0,w
  8096  1339  2B3B               	goto	u3931
  8097  133A  2B3C               	goto	u3932
  8098  133B                     u3931:
  8099  133B  07F7               	addwf	(??___ftge+0)+1,f
  8100                           	
  8101  133C                     u3932:
  8102  133C  087B               	movf	2+(??___ftge+3)+0,w
  8103  133D  1803               	skipnc
  8104  133E  0F7B               	incfsz	2+(??___ftge+3)+0,w
  8105  133F  2B41               	goto	u3933
  8106  1340  2B42               	goto	u3934
  8107  1341                     u3933:
  8108  1341  07F8               	addwf	(??___ftge+0)+2,f
  8109                           	
  8110  1342                     u3934:
  8111  1342  0876               	movf	0+(??___ftge+0)+0,w
  8112  1343  00F3               	movwf	(___ftge@ff2)
  8113  1344  0877               	movf	1+(??___ftge+0)+0,w
  8114  1345  00F4               	movwf	(___ftge@ff2+1)
  8115  1346  0878               	movf	2+(??___ftge+0)+0,w
  8116  1347  00F5               	movwf	(___ftge@ff2+2)
  8117  1348  2B49               	goto	l8525
  8118                           	
  8119  1349                     l5235:	
  8120                           	line	10
  8121                           	
  8122  1349                     l8525:	
  8123  1349  3080               	movlw	080h
  8124  134A  06F2               	xorwf	(___ftge@ff1+2),f
  8125                           	line	11
  8126                           	
  8127  134B                     l8527:	
  8128  134B  3080               	movlw	080h
  8129  134C  06F5               	xorwf	(___ftge@ff2+2),f
  8130                           	line	12
  8131                           	
  8132  134D                     l8529:	
  8133  134D  0875               	movf	(___ftge@ff2+2),w
  8134  134E  0272               	subwf	(___ftge@ff1+2),w
  8135  134F  1D03               	skipz
  8136  1350  2B57               	goto	u3945
  8137  1351  0874               	movf	(___ftge@ff2+1),w
  8138  1352  0271               	subwf	(___ftge@ff1+1),w
  8139  1353  1D03               	skipz
  8140  1354  2B57               	goto	u3945
  8141  1355  0873               	movf	(___ftge@ff2),w
  8142  1356  0270               	subwf	(___ftge@ff1),w
  8143  1357                     u3945:
  8144  1357  1803               	skipnc
  8145  1358  2B5A               	goto	u3941
  8146  1359  2B5B               	goto	u3940
  8147  135A                     u3941:
  8148  135A  2B5D               	goto	l8533
  8149  135B                     u3940:
  8150                           	
  8151  135B                     l8531:	
  8152  135B  1003               	clrc
  8153                           	
  8154  135C  2B60               	goto	l5236
  8155                           	
  8156  135D                     l8173:	
  8157                           	
  8158  135D                     l8533:	
  8159  135D  1403               	setc
  8160                           	
  8161  135E  2B60               	goto	l5236
  8162                           	
  8163  135F                     l8175:	
  8164  135F  2B60               	goto	l5236
  8165                           	
  8166  1360                     l8535:	
  8167                           	line	13
  8168                           	
  8169  1360                     l5236:	
  8170  1360  0008               	return
  8171                           	opt stack 0
  8172                           GLOBAL	__end_of___ftge
  8173  1361                     	__end_of___ftge:
  8174 ;; =============== function ___ftge ends ============
  8175                           
  8176                           	signat	___ftge,8312
  8177                           	global	___ftneg
  8178                           psect	text615,local,class=CODE,delta=2
  8179                           global __ptext615
  8180  1FF4                     __ptext615:
  8181                           
  8182 ;; *************** function ___ftneg *****************
  8183 ;; Defined at:
  8184 ;;		line 16 in file "C:\Program Files (x86)\HI-TECH Software\PICC\9.82\sources\ftneg.c"
  8185 ;; Parameters:    Size  Location     Type
  8186 ;;  f1              3    0[COMMON] float 
  8187 ;; Auto vars:     Size  Location     Type
  8188 ;;		None
  8189 ;; Return value:  Size  Location     Type
  8190 ;;                  3    0[COMMON] float 
  8191 ;; Registers used:
  8192 ;;		wreg
  8193 ;; Tracked objects:
  8194 ;;		On entry : 0/0
  8195 ;;		On exit  : 0/0
  8196 ;;		Unchanged: 0/0
  8197 ;; Data sizes:     COMMON   BANK0   BANK1   BANK3   BANK2
  8198 ;;      Params:         3       0       0       0       0
  8199 ;;      Locals:         0       0       0       0       0
  8200 ;;      Temps:          0       0       0       0       0
  8201 ;;      Totals:         3       0       0       0       0
  8202 ;;Total ram usage:        3 bytes
  8203 ;; Hardware stack levels used:    1
  8204 ;; This function calls:
  8205 ;;		Nothing
  8206 ;; This function is called by:
  8207 ;;		_sprintf
  8208 ;; This function uses a non-reentrant model
  8209 ;;
  8210                           psect	text615
  8211                           	file	"C:\Program Files (x86)\HI-TECH Software\PICC\9.82\sources\ftneg.c"
  8212                           	line	16
  8213                           	global	__size_of___ftneg
  8214  000C                     	__size_of___ftneg	equ	__end_of___ftneg-___ftneg
  8215                           	
  8216  1FF4                     ___ftneg:	
  8217                           	opt	stack 6
  8218                           ; Regs used in ___ftneg: [wreg]
  8219                           	line	17
  8220                           	
  8221  1FF4                     l8509:	
  8222  1FF4  0872               	movf	(___ftneg@f1+2),w
  8223  1FF5  0471               	iorwf	(___ftneg@f1+1),w
  8224  1FF6  0470               	iorwf	(___ftneg@f1),w
  8225  1FF7  1903               	skipnz
  8226  1FF8  2FFA               	goto	u3891
  8227  1FF9  2FFB               	goto	u3890
  8228  1FFA                     u3891:
  8229  1FFA  2FFE               	goto	l8513
  8230  1FFB                     u3890:
  8231                           	line	18
  8232                           	
  8233  1FFB                     l8511:	
  8234  1FFB  3080               	movlw	080h
  8235  1FFC  06F2               	xorwf	(___ftneg@f1+2),f
  8236  1FFD  2FFE               	goto	l8513
  8237                           	
  8238  1FFE                     l5230:	
  8239                           	line	19
  8240                           	
  8241  1FFE                     l8513:	
  8242  1FFE  2FFF               	goto	l5231
  8243                           	
  8244  1FFF                     l8515:	
  8245                           	line	20
  8246                           	
  8247  1FFF                     l5231:	
  8248  1FFF  0008               	return
  8249                           	opt stack 0
  8250                           GLOBAL	__end_of___ftneg
  8251  2000                     	__end_of___ftneg:
  8252 ;; =============== function ___ftneg ends ============
  8253                           
  8254                           	signat	___ftneg,4219
  8255                           	global	___llmod
  8256                           psect	text616,local,class=CODE,delta=2
  8257                           global __ptext616
  8258  1231                     __ptext616:
  8259                           
  8260 ;; *************** function ___llmod *****************
  8261 ;; Defined at:
  8262 ;;		line 5 in file "C:\Program Files (x86)\HI-TECH Software\PICC\9.82\sources\llmod.c"
  8263 ;; Parameters:    Size  Location     Type
  8264 ;;  divisor         4    0[BANK0 ] unsigned long 
  8265 ;;  dividend        4    4[BANK0 ] unsigned long 
  8266 ;; Auto vars:     Size  Location     Type
  8267 ;;  counter         1    9[BANK0 ] unsigned char 
  8268 ;; Return value:  Size  Location     Type
  8269 ;;                  4    0[BANK0 ] unsigned long 
  8270 ;; Registers used:
  8271 ;;		wreg, status,2, status,0
  8272 ;; Tracked objects:
  8273 ;;		On entry : 0/0
  8274 ;;		On exit  : 0/0
  8275 ;;		Unchanged: 0/0
  8276 ;; Data sizes:     COMMON   BANK0   BANK1   BANK3   BANK2
  8277 ;;      Params:         0       8       0       0       0
  8278 ;;      Locals:         0       1       0       0       0
  8279 ;;      Temps:          0       1       0       0       0
  8280 ;;      Totals:         0      10       0       0       0
  8281 ;;Total ram usage:       10 bytes
  8282 ;; Hardware stack levels used:    1
  8283 ;; This function calls:
  8284 ;;		Nothing
  8285 ;; This function is called by:
  8286 ;;		_sprintf
  8287 ;; This function uses a non-reentrant model
  8288 ;;
  8289                           psect	text616
  8290                           	file	"C:\Program Files (x86)\HI-TECH Software\PICC\9.82\sources\llmod.c"
  8291                           	line	5
  8292                           	global	__size_of___llmod
  8293  005E                     	__size_of___llmod	equ	__end_of___llmod-___llmod
  8294                           	
  8295  1231                     ___llmod:	
  8296                           	opt	stack 6
  8297                           ; Regs used in ___llmod: [wreg+status,2+status,0]
  8298                           	line	8
  8299                           	
  8300  1231                     l8489:	
  8301  1231  1283               	bcf	status, 5	;RP0=0, select bank0
  8302  1232  1303               	bcf	status, 6	;RP1=0, select bank0
  8303  1233  0823               	movf	(___llmod@divisor+3),w
  8304  1234  0422               	iorwf	(___llmod@divisor+2),w
  8305  1235  0421               	iorwf	(___llmod@divisor+1),w
  8306  1236  0420               	iorwf	(___llmod@divisor),w
  8307  1237  1903               	skipnz
  8308  1238  2A3A               	goto	u3831
  8309  1239  2A3B               	goto	u3830
  8310  123A                     u3831:
  8311  123A  2A85               	goto	l8505
  8312  123B                     u3830:
  8313                           	line	9
  8314                           	
  8315  123B                     l8491:	
  8316  123B  01A9               	clrf	(___llmod@counter)
  8317  123C  1403               	bsf	status,0
  8318  123D  0DA9               	rlf	(___llmod@counter),f
  8319                           	line	10
  8320  123E  2A4D               	goto	l8495
  8321                           	
  8322  123F                     l5222:	
  8323                           	line	11
  8324                           	
  8325  123F                     l8493:	
  8326  123F  3001               	movlw	01h
  8327  1240  00A8               	movwf	(??___llmod+0)+0
  8328  1241                     u3845:
  8329  1241  1003               	clrc
  8330  1242  0DA0               	rlf	(___llmod@divisor),f
  8331  1243  0DA1               	rlf	(___llmod@divisor+1),f
  8332  1244  0DA2               	rlf	(___llmod@divisor+2),f
  8333  1245  0DA3               	rlf	(___llmod@divisor+3),f
  8334  1246  0BA8               	decfsz	(??___llmod+0)+0
  8335  1247  2A41               	goto	u3845
  8336                           	line	12
  8337  1248  3001               	movlw	(01h)
  8338  1249  00A8               	movwf	(??___llmod+0)+0
  8339  124A  0828               	movf	(??___llmod+0)+0,w
  8340  124B  07A9               	addwf	(___llmod@counter),f
  8341  124C  2A4D               	goto	l8495
  8342                           	line	13
  8343                           	
  8344  124D                     l5221:	
  8345                           	line	10
  8346                           	
  8347  124D                     l8495:	
  8348  124D  1FA3               	btfss	(___llmod@divisor+3),(31)&7
  8349  124E  2A50               	goto	u3851
  8350  124F  2A51               	goto	u3850
  8351  1250                     u3851:
  8352  1250  2A3F               	goto	l8493
  8353  1251                     u3850:
  8354  1251  2A53               	goto	l8497
  8355                           	
  8356  1252                     l5223:	
  8357  1252  2A53               	goto	l8497
  8358                           	line	14
  8359                           	
  8360  1253                     l5224:	
  8361                           	line	15
  8362                           	
  8363  1253                     l8497:	
  8364  1253  0823               	movf	(___llmod@divisor+3),w
  8365  1254  0227               	subwf	(___llmod@dividend+3),w
  8366  1255  1D03               	skipz
  8367  1256  2A61               	goto	u3865
  8368  1257  0822               	movf	(___llmod@divisor+2),w
  8369  1258  0226               	subwf	(___llmod@dividend+2),w
  8370  1259  1D03               	skipz
  8371  125A  2A61               	goto	u3865
  8372  125B  0821               	movf	(___llmod@divisor+1),w
  8373  125C  0225               	subwf	(___llmod@dividend+1),w
  8374  125D  1D03               	skipz
  8375  125E  2A61               	goto	u3865
  8376  125F  0820               	movf	(___llmod@divisor),w
  8377  1260  0224               	subwf	(___llmod@dividend),w
  8378  1261                     u3865:
  8379  1261  1C03               	skipc
  8380  1262  2A64               	goto	u3861
  8381  1263  2A65               	goto	u3860
  8382  1264                     u3861:
  8383  1264  2A74               	goto	l8501
  8384  1265                     u3860:
  8385                           	line	16
  8386                           	
  8387  1265                     l8499:	
  8388  1265  0820               	movf	(___llmod@divisor),w
  8389  1266  02A4               	subwf	(___llmod@dividend),f
  8390  1267  0821               	movf	(___llmod@divisor+1),w
  8391  1268  1C03               	skipc
  8392  1269  0F21               	incfsz	(___llmod@divisor+1),w
  8393  126A  02A5               	subwf	(___llmod@dividend+1),f
  8394  126B  0822               	movf	(___llmod@divisor+2),w
  8395  126C  1C03               	skipc
  8396  126D  0F22               	incfsz	(___llmod@divisor+2),w
  8397  126E  02A6               	subwf	(___llmod@dividend+2),f
  8398  126F  0823               	movf	(___llmod@divisor+3),w
  8399  1270  1C03               	skipc
  8400  1271  0F23               	incfsz	(___llmod@divisor+3),w
  8401  1272  02A7               	subwf	(___llmod@dividend+3),f
  8402  1273  2A74               	goto	l8501
  8403                           	
  8404  1274                     l5225:	
  8405                           	line	17
  8406                           	
  8407  1274                     l8501:	
  8408  1274  3001               	movlw	01h
  8409  1275                     u3875:
  8410  1275  1003               	clrc
  8411  1276  0CA3               	rrf	(___llmod@divisor+3),f
  8412  1277  0CA2               	rrf	(___llmod@divisor+2),f
  8413  1278  0CA1               	rrf	(___llmod@divisor+1),f
  8414  1279  0CA0               	rrf	(___llmod@divisor),f
  8415  127A  3EFF               	addlw	-1
  8416  127B  1D03               	skipz
  8417  127C  2A75               	goto	u3875
  8418                           
  8419                           	line	18
  8420                           	
  8421  127D                     l8503:	
  8422  127D  3001               	movlw	low(01h)
  8423  127E  02A9               	subwf	(___llmod@counter),f
  8424  127F  1D03               	btfss	status,2
  8425  1280  2A82               	goto	u3881
  8426  1281  2A83               	goto	u3880
  8427  1282                     u3881:
  8428  1282  2A53               	goto	l8497
  8429  1283                     u3880:
  8430  1283  2A85               	goto	l8505
  8431                           	
  8432  1284                     l5226:	
  8433  1284  2A85               	goto	l8505
  8434                           	line	19
  8435                           	
  8436  1285                     l5220:	
  8437                           	line	20
  8438                           	
  8439  1285                     l8505:	
  8440  1285  0827               	movf	(___llmod@dividend+3),w
  8441  1286  00A3               	movwf	(?___llmod+3)
  8442  1287  0826               	movf	(___llmod@dividend+2),w
  8443  1288  00A2               	movwf	(?___llmod+2)
  8444  1289  0825               	movf	(___llmod@dividend+1),w
  8445  128A  00A1               	movwf	(?___llmod+1)
  8446  128B  0824               	movf	(___llmod@dividend),w
  8447  128C  00A0               	movwf	(?___llmod)
  8448                           
  8449  128D  2A8E               	goto	l5227
  8450                           	
  8451  128E                     l8507:	
  8452                           	line	21
  8453                           	
  8454  128E                     l5227:	
  8455  128E  0008               	return
  8456                           	opt stack 0
  8457                           GLOBAL	__end_of___llmod
  8458  128F                     	__end_of___llmod:
  8459 ;; =============== function ___llmod ends ============
  8460                           
  8461                           	signat	___llmod,8316
  8462                           	global	___awdiv
  8463                           psect	text617,local,class=CODE,delta=2
  8464                           global __ptext617
  8465  13CF                     __ptext617:
  8466                           
  8467 ;; *************** function ___awdiv *****************
  8468 ;; Defined at:
  8469 ;;		line 5 in file "C:\Program Files (x86)\HI-TECH Software\PICC\9.82\sources\awdiv.c"
  8470 ;; Parameters:    Size  Location     Type
  8471 ;;  divisor         2    7[COMMON] int 
  8472 ;;  dividend        2    9[COMMON] int 
  8473 ;; Auto vars:     Size  Location     Type
  8474 ;;  quotient        2    2[BANK0 ] int 
  8475 ;;  sign            1    1[BANK0 ] unsigned char 
  8476 ;;  counter         1    0[BANK0 ] unsigned char 
  8477 ;; Return value:  Size  Location     Type
  8478 ;;                  2    7[COMMON] int 
  8479 ;; Registers used:
  8480 ;;		wreg, status,2, status,0
  8481 ;; Tracked objects:
  8482 ;;		On entry : 0/0
  8483 ;;		On exit  : 0/0
  8484 ;;		Unchanged: 0/0
  8485 ;; Data sizes:     COMMON   BANK0   BANK1   BANK3   BANK2
  8486 ;;      Params:         4       0       0       0       0
  8487 ;;      Locals:         0       4       0       0       0
  8488 ;;      Temps:          1       0       0       0       0
  8489 ;;      Totals:         5       4       0       0       0
  8490 ;;Total ram usage:        9 bytes
  8491 ;; Hardware stack levels used:    1
  8492 ;; This function calls:
  8493 ;;		Nothing
  8494 ;; This function is called by:
  8495 ;;		_fround
  8496 ;;		_scale
  8497 ;;		_sprintf
  8498 ;; This function uses a non-reentrant model
  8499 ;;
  8500                           psect	text617
  8501                           	file	"C:\Program Files (x86)\HI-TECH Software\PICC\9.82\sources\awdiv.c"
  8502                           	line	5
  8503                           	global	__size_of___awdiv
  8504  0076                     	__size_of___awdiv	equ	__end_of___awdiv-___awdiv
  8505                           	
  8506  13CF                     ___awdiv:	
  8507                           	opt	stack 5
  8508                           ; Regs used in ___awdiv: [wreg+status,2+status,0]
  8509                           	line	9
  8510                           	
  8511  13CF                     l8449:	
  8512  13CF  1283               	bcf	status, 5	;RP0=0, select bank0
  8513  13D0  1303               	bcf	status, 6	;RP1=0, select bank0
  8514  13D1  01A1               	clrf	(___awdiv@sign)
  8515                           	line	10
  8516  13D2  1FF8               	btfss	(___awdiv@divisor+1),7
  8517  13D3  2BD5               	goto	u3731
  8518  13D4  2BD6               	goto	u3730
  8519  13D5                     u3731:
  8520  13D5  2BDF               	goto	l8453
  8521  13D6                     u3730:
  8522                           	line	11
  8523                           	
  8524  13D6                     l8451:	
  8525  13D6  09F7               	comf	(___awdiv@divisor),f
  8526  13D7  09F8               	comf	(___awdiv@divisor+1),f
  8527  13D8  0AF7               	incf	(___awdiv@divisor),f
  8528  13D9  1903               	skipnz
  8529  13DA  0AF8               	incf	(___awdiv@divisor+1),f
  8530                           	line	12
  8531  13DB  01A1               	clrf	(___awdiv@sign)
  8532  13DC  1403               	bsf	status,0
  8533  13DD  0DA1               	rlf	(___awdiv@sign),f
  8534  13DE  2BDF               	goto	l8453
  8535                           	line	13
  8536                           	
  8537  13DF                     l5207:	
  8538                           	line	14
  8539                           	
  8540  13DF                     l8453:	
  8541  13DF  1FFA               	btfss	(___awdiv@dividend+1),7
  8542  13E0  2BE2               	goto	u3741
  8543  13E1  2BE3               	goto	u3740
  8544  13E2                     u3741:
  8545  13E2  2BED               	goto	l8459
  8546  13E3                     u3740:
  8547                           	line	15
  8548                           	
  8549  13E3                     l8455:	
  8550  13E3  09F9               	comf	(___awdiv@dividend),f
  8551  13E4  09FA               	comf	(___awdiv@dividend+1),f
  8552  13E5  0AF9               	incf	(___awdiv@dividend),f
  8553  13E6  1903               	skipnz
  8554  13E7  0AFA               	incf	(___awdiv@dividend+1),f
  8555                           	line	16
  8556                           	
  8557  13E8                     l8457:	
  8558  13E8  3001               	movlw	(01h)
  8559  13E9  00FB               	movwf	(??___awdiv+0)+0
  8560  13EA  087B               	movf	(??___awdiv+0)+0,w
  8561  13EB  06A1               	xorwf	(___awdiv@sign),f
  8562  13EC  2BED               	goto	l8459
  8563                           	line	17
  8564                           	
  8565  13ED                     l5208:	
  8566                           	line	18
  8567                           	
  8568  13ED                     l8459:	
  8569  13ED  01A2               	clrf	(___awdiv@quotient)
  8570  13EE  01A3               	clrf	(___awdiv@quotient+1)
  8571                           	line	19
  8572                           	
  8573  13EF                     l8461:	
  8574  13EF  0878               	movf	(___awdiv@divisor+1),w
  8575  13F0  0477               	iorwf	(___awdiv@divisor),w
  8576  13F1  1903               	skipnz
  8577  13F2  2BF4               	goto	u3751
  8578  13F3  2BF5               	goto	u3750
  8579  13F4                     u3751:
  8580  13F4  2C33               	goto	l8481
  8581  13F5                     u3750:
  8582                           	line	20
  8583                           	
  8584  13F5                     l8463:	
  8585  13F5  01A0               	clrf	(___awdiv@counter)
  8586  13F6  1403               	bsf	status,0
  8587  13F7  0DA0               	rlf	(___awdiv@counter),f
  8588                           	line	21
  8589  13F8  2C05               	goto	l8469
  8590                           	
  8591  13F9                     l5211:	
  8592                           	line	22
  8593                           	
  8594  13F9                     l8465:	
  8595  13F9  3001               	movlw	01h
  8596                           	
  8597  13FA                     u3765:
  8598  13FA  1003               	clrc
  8599  13FB  0DF7               	rlf	(___awdiv@divisor),f
  8600  13FC  0DF8               	rlf	(___awdiv@divisor+1),f
  8601  13FD  3EFF               	addlw	-1
  8602  13FE  1D03               	skipz
  8603  13FF  2BFA               	goto	u3765
  8604                           	line	23
  8605                           	
  8606  1400                     l8467:	
  8607  1400  3001               	movlw	(01h)
  8608  1401  00FB               	movwf	(??___awdiv+0)+0
  8609  1402  087B               	movf	(??___awdiv+0)+0,w
  8610  1403  07A0               	addwf	(___awdiv@counter),f
  8611  1404  2C05               	goto	l8469
  8612                           	line	24
  8613                           	
  8614  1405                     l5210:	
  8615                           	line	21
  8616                           	
  8617  1405                     l8469:	
  8618  1405  1FF8               	btfss	(___awdiv@divisor+1),(15)&7
  8619  1406  2C08               	goto	u3771
  8620  1407  2C09               	goto	u3770
  8621  1408                     u3771:
  8622  1408  2BF9               	goto	l8465
  8623  1409                     u3770:
  8624  1409  2C0B               	goto	l8471
  8625                           	
  8626  140A                     l5212:	
  8627  140A  2C0B               	goto	l8471
  8628                           	line	25
  8629                           	
  8630  140B                     l5213:	
  8631                           	line	26
  8632                           	
  8633  140B                     l8471:	
  8634  140B  3001               	movlw	01h
  8635                           	
  8636  140C                     u3785:
  8637  140C  1003               	clrc
  8638  140D  0DA2               	rlf	(___awdiv@quotient),f
  8639  140E  0DA3               	rlf	(___awdiv@quotient+1),f
  8640  140F  3EFF               	addlw	-1
  8641  1410  1D03               	skipz
  8642  1411  2C0C               	goto	u3785
  8643                           	line	27
  8644  1412  0878               	movf	(___awdiv@divisor+1),w
  8645  1413  027A               	subwf	(___awdiv@dividend+1),w
  8646  1414  1D03               	skipz
  8647  1415  2C18               	goto	u3795
  8648  1416  0877               	movf	(___awdiv@divisor),w
  8649  1417  0279               	subwf	(___awdiv@dividend),w
  8650  1418                     u3795:
  8651  1418  1C03               	skipc
  8652  1419  2C1B               	goto	u3791
  8653  141A  2C1C               	goto	u3790
  8654  141B                     u3791:
  8655  141B  2C24               	goto	l8477
  8656  141C                     u3790:
  8657                           	line	28
  8658                           	
  8659  141C                     l8473:	
  8660  141C  0877               	movf	(___awdiv@divisor),w
  8661  141D  02F9               	subwf	(___awdiv@dividend),f
  8662  141E  0878               	movf	(___awdiv@divisor+1),w
  8663  141F  1C03               	skipc
  8664  1420  03FA               	decf	(___awdiv@dividend+1),f
  8665  1421  02FA               	subwf	(___awdiv@dividend+1),f
  8666                           	line	29
  8667                           	
  8668  1422                     l8475:	
  8669  1422  1422               	bsf	(___awdiv@quotient)+(0/8),(0)&7
  8670  1423  2C24               	goto	l8477
  8671                           	line	30
  8672                           	
  8673  1424                     l5214:	
  8674                           	line	31
  8675                           	
  8676  1424                     l8477:	
  8677  1424  3001               	movlw	01h
  8678                           	
  8679  1425                     u3805:
  8680  1425  1003               	clrc
  8681  1426  0CF8               	rrf	(___awdiv@divisor+1),f
  8682  1427  0CF7               	rrf	(___awdiv@divisor),f
  8683  1428  3EFF               	addlw	-1
  8684  1429  1D03               	skipz
  8685  142A  2C25               	goto	u3805
  8686                           	line	32
  8687                           	
  8688  142B                     l8479:	
  8689  142B  3001               	movlw	low(01h)
  8690  142C  02A0               	subwf	(___awdiv@counter),f
  8691  142D  1D03               	btfss	status,2
  8692  142E  2C30               	goto	u3811
  8693  142F  2C31               	goto	u3810
  8694  1430                     u3811:
  8695  1430  2C0B               	goto	l8471
  8696  1431                     u3810:
  8697  1431  2C33               	goto	l8481
  8698                           	
  8699  1432                     l5215:	
  8700  1432  2C33               	goto	l8481
  8701                           	line	33
  8702                           	
  8703  1433                     l5209:	
  8704                           	line	34
  8705                           	
  8706  1433                     l8481:	
  8707  1433  0821               	movf	(___awdiv@sign),w
  8708  1434  1D03               	skipz
  8709  1435  2C37               	goto	u3820
  8710  1436  2C3D               	goto	l8485
  8711  1437                     u3820:
  8712                           	line	35
  8713                           	
  8714  1437                     l8483:	
  8715  1437  09A2               	comf	(___awdiv@quotient),f
  8716  1438  09A3               	comf	(___awdiv@quotient+1),f
  8717  1439  0AA2               	incf	(___awdiv@quotient),f
  8718  143A  1903               	skipnz
  8719  143B  0AA3               	incf	(___awdiv@quotient+1),f
  8720  143C  2C3D               	goto	l8485
  8721                           	
  8722  143D                     l5216:	
  8723                           	line	36
  8724                           	
  8725  143D                     l8485:	
  8726  143D  0823               	movf	(___awdiv@quotient+1),w
  8727  143E  01F8               	clrf	(?___awdiv+1)
  8728  143F  07F8               	addwf	(?___awdiv+1)
  8729  1440  0822               	movf	(___awdiv@quotient),w
  8730  1441  01F7               	clrf	(?___awdiv)
  8731  1442  07F7               	addwf	(?___awdiv)
  8732                           
  8733  1443  2C44               	goto	l5217
  8734                           	
  8735  1444                     l8487:	
  8736                           	line	37
  8737                           	
  8738  1444                     l5217:	
  8739  1444  0008               	return
  8740                           	opt stack 0
  8741                           GLOBAL	__end_of___awdiv
  8742  1445                     	__end_of___awdiv:
  8743 ;; =============== function ___awdiv ends ============
  8744                           
  8745                           	signat	___awdiv,8314
  8746                           	global	___fttol
  8747                           psect	text618,local,class=CODE,delta=2
  8748                           global __ptext618
  8749  14C0                     __ptext618:
  8750                           
  8751 ;; *************** function ___fttol *****************
  8752 ;; Defined at:
  8753 ;;		line 45 in file "C:\Program Files (x86)\HI-TECH Software\PICC\9.82\sources\fttol.c"
  8754 ;; Parameters:    Size  Location     Type
  8755 ;;  f1              3    7[BANK0 ] float 
  8756 ;; Auto vars:     Size  Location     Type
  8757 ;;  lval            4   16[BANK0 ] unsigned long 
  8758 ;;  exp1            1   20[BANK0 ] unsigned char 
  8759 ;;  sign1           1   15[BANK0 ] unsigned char 
  8760 ;; Return value:  Size  Location     Type
  8761 ;;                  4    7[BANK0 ] long 
  8762 ;; Registers used:
  8763 ;;		wreg, status,2, status,0
  8764 ;; Tracked objects:
  8765 ;;		On entry : 0/0
  8766 ;;		On exit  : 0/0
  8767 ;;		Unchanged: 0/0
  8768 ;; Data sizes:     COMMON   BANK0   BANK1   BANK3   BANK2
  8769 ;;      Params:         0       4       0       0       0
  8770 ;;      Locals:         0       6       0       0       0
  8771 ;;      Temps:          0       4       0       0       0
  8772 ;;      Totals:         0      14       0       0       0
  8773 ;;Total ram usage:       14 bytes
  8774 ;; Hardware stack levels used:    1
  8775 ;; This function calls:
  8776 ;;		Nothing
  8777 ;; This function is called by:
  8778 ;;		_sprintf
  8779 ;; This function uses a non-reentrant model
  8780 ;;
  8781                           psect	text618
  8782                           	file	"C:\Program Files (x86)\HI-TECH Software\PICC\9.82\sources\fttol.c"
  8783                           	line	45
  8784                           	global	__size_of___fttol
  8785  00A6                     	__size_of___fttol	equ	__end_of___fttol-___fttol
  8786                           	
  8787  14C0                     ___fttol:	
  8788                           	opt	stack 6
  8789                           ; Regs used in ___fttol: [wreg+status,2+status,0]
  8790                           	line	49
  8791                           	
  8792  14C0                     l8393:	
  8793  14C0  1283               	bcf	status, 5	;RP0=0, select bank0
  8794  14C1  1303               	bcf	status, 6	;RP1=0, select bank0
  8795  14C2  0827               	movf	(___fttol@f1),w
  8796  14C3  00AB               	movwf	((??___fttol+0)+0)
  8797  14C4  0828               	movf	(___fttol@f1+1),w
  8798  14C5  00AC               	movwf	((??___fttol+0)+0+1)
  8799  14C6  0829               	movf	(___fttol@f1+2),w
  8800  14C7  00AD               	movwf	((??___fttol+0)+0+2)
  8801  14C8  1003               	clrc
  8802  14C9  0D2C               	rlf	(??___fttol+0)+1,w
  8803  14CA  0D2D               	rlf	(??___fttol+0)+2,w
  8804  14CB  00AE               	movwf	(??___fttol+3)+0
  8805  14CC  082E               	movf	(??___fttol+3)+0,w
  8806  14CD  00B4               	movwf	(___fttol@exp1)
  8807  14CE  08B4               	movf	((___fttol@exp1)),f
  8808  14CF  1D03               	skipz
  8809  14D0  2CD2               	goto	u3621
  8810  14D1  2CD3               	goto	u3620
  8811  14D2                     u3621:
  8812  14D2  2CDD               	goto	l8399
  8813  14D3                     u3620:
  8814                           	line	50
  8815                           	
  8816  14D3                     l8395:	
  8817  14D3  3000               	movlw	0
  8818  14D4  00AA               	movwf	(?___fttol+3)
  8819  14D5  3000               	movlw	0
  8820  14D6  00A9               	movwf	(?___fttol+2)
  8821  14D7  3000               	movlw	0
  8822  14D8  00A8               	movwf	(?___fttol+1)
  8823  14D9  3000               	movlw	0
  8824  14DA  00A7               	movwf	(?___fttol)
  8825                           
  8826  14DB  2D65               	goto	l5177
  8827                           	
  8828  14DC                     l8397:	
  8829  14DC  2D65               	goto	l5177
  8830                           	
  8831  14DD                     l5176:	
  8832                           	line	51
  8833                           	
  8834  14DD                     l8399:	
  8835  14DD  0827               	movf	(___fttol@f1),w
  8836  14DE  00AB               	movwf	((??___fttol+0)+0)
  8837  14DF  0828               	movf	(___fttol@f1+1),w
  8838  14E0  00AC               	movwf	((??___fttol+0)+0+1)
  8839  14E1  0829               	movf	(___fttol@f1+2),w
  8840  14E2  00AD               	movwf	((??___fttol+0)+0+2)
  8841  14E3  3017               	movlw	017h
  8842  14E4                     u3635:
  8843  14E4  1003               	clrc
  8844  14E5  0CAD               	rrf	(??___fttol+0)+2,f
  8845  14E6  0CAC               	rrf	(??___fttol+0)+1,f
  8846  14E7  0CAB               	rrf	(??___fttol+0)+0,f
  8847  14E8                     u3630:
  8848  14E8  3EFF               	addlw	-1
  8849  14E9  1D03               	skipz
  8850  14EA  2CE4               	goto	u3635
  8851  14EB  082B               	movf	0+(??___fttol+0)+0,w
  8852  14EC  00AE               	movwf	(??___fttol+3)+0
  8853  14ED  082E               	movf	(??___fttol+3)+0,w
  8854  14EE  00AF               	movwf	(___fttol@sign1)
  8855                           	line	52
  8856                           	
  8857  14EF                     l8401:	
  8858  14EF  17A8               	bsf	(___fttol@f1)+(15/8),(15)&7
  8859                           	line	53
  8860                           	
  8861  14F0                     l8403:	
  8862  14F0  30FF               	movlw	0FFh
  8863  14F1  05A7               	andwf	(___fttol@f1),f
  8864  14F2  30FF               	movlw	0FFh
  8865  14F3  05A8               	andwf	(___fttol@f1+1),f
  8866  14F4  3000               	movlw	0
  8867  14F5  05A9               	andwf	(___fttol@f1+2),f
  8868                           	line	54
  8869                           	
  8870  14F6                     l8405:	
  8871  14F6  0827               	movf	(___fttol@f1),w
  8872  14F7  00B0               	movwf	(___fttol@lval)
  8873  14F8  0828               	movf	(___fttol@f1+1),w
  8874  14F9  00B1               	movwf	((___fttol@lval))+1
  8875  14FA  0829               	movf	(___fttol@f1+2),w
  8876  14FB  00B2               	movwf	((___fttol@lval))+2
  8877  14FC  01B3               	clrf	((___fttol@lval))+3
  8878                           	line	55
  8879                           	
  8880  14FD                     l8407:	
  8881  14FD  308E               	movlw	low(08Eh)
  8882  14FE  02B4               	subwf	(___fttol@exp1),f
  8883                           	line	56
  8884                           	
  8885  14FF                     l8409:	
  8886  14FF  1FB4               	btfss	(___fttol@exp1),7
  8887  1500  2D02               	goto	u3641
  8888  1501  2D03               	goto	u3640
  8889  1502                     u3641:
  8890  1502  2D28               	goto	l8419
  8891  1503                     u3640:
  8892                           	line	57
  8893                           	
  8894  1503                     l8411:	
  8895  1503  0834               	movf	(___fttol@exp1),w
  8896  1504  3A80               	xorlw	80h
  8897  1505  3E8F               	addlw	-((-15)^80h)
  8898  1506  1803               	skipnc
  8899  1507  2D09               	goto	u3651
  8900  1508  2D0A               	goto	u3650
  8901  1509                     u3651:
  8902  1509  2D15               	goto	l8417
  8903  150A                     u3650:
  8904                           	line	58
  8905                           	
  8906  150A                     l8413:	
  8907  150A  3000               	movlw	0
  8908  150B  00AA               	movwf	(?___fttol+3)
  8909  150C  3000               	movlw	0
  8910  150D  00A9               	movwf	(?___fttol+2)
  8911  150E  3000               	movlw	0
  8912  150F  00A8               	movwf	(?___fttol+1)
  8913  1510  3000               	movlw	0
  8914  1511  00A7               	movwf	(?___fttol)
  8915                           
  8916  1512  2D65               	goto	l5177
  8917                           	
  8918  1513                     l8415:	
  8919  1513  2D65               	goto	l5177
  8920                           	
  8921  1514                     l5179:	
  8922  1514  2D15               	goto	l8417
  8923                           	line	59
  8924                           	
  8925  1515                     l5180:	
  8926                           	line	60
  8927                           	
  8928  1515                     l8417:	
  8929  1515  3001               	movlw	01h
  8930  1516                     u3665:
  8931  1516  1003               	clrc
  8932  1517  0CB3               	rrf	(___fttol@lval+3),f
  8933  1518  0CB2               	rrf	(___fttol@lval+2),f
  8934  1519  0CB1               	rrf	(___fttol@lval+1),f
  8935  151A  0CB0               	rrf	(___fttol@lval),f
  8936  151B  3EFF               	addlw	-1
  8937  151C  1D03               	skipz
  8938  151D  2D16               	goto	u3665
  8939                           
  8940                           	line	61
  8941  151E  3001               	movlw	(01h)
  8942  151F  00AB               	movwf	(??___fttol+0)+0
  8943  1520  082B               	movf	(??___fttol+0)+0,w
  8944  1521  07B4               	addwf	(___fttol@exp1),f
  8945  1522  1D03               	btfss	status,2
  8946  1523  2D25               	goto	u3671
  8947  1524  2D26               	goto	u3670
  8948  1525                     u3671:
  8949  1525  2D15               	goto	l8417
  8950  1526                     u3670:
  8951  1526  2D4C               	goto	l8429
  8952                           	
  8953  1527                     l5181:	
  8954                           	line	62
  8955  1527  2D4C               	goto	l8429
  8956                           	
  8957  1528                     l5178:	
  8958                           	line	63
  8959                           	
  8960  1528                     l8419:	
  8961  1528  3018               	movlw	(018h)
  8962  1529  0234               	subwf	(___fttol@exp1),w
  8963  152A  1C03               	skipc
  8964  152B  2D2D               	goto	u3681
  8965  152C  2D2E               	goto	u3680
  8966  152D                     u3681:
  8967  152D  2D45               	goto	l8427
  8968  152E                     u3680:
  8969                           	line	64
  8970                           	
  8971  152E                     l8421:	
  8972  152E  3000               	movlw	0
  8973  152F  00AA               	movwf	(?___fttol+3)
  8974  1530  3000               	movlw	0
  8975  1531  00A9               	movwf	(?___fttol+2)
  8976  1532  3000               	movlw	0
  8977  1533  00A8               	movwf	(?___fttol+1)
  8978  1534  3000               	movlw	0
  8979  1535  00A7               	movwf	(?___fttol)
  8980                           
  8981  1536  2D65               	goto	l5177
  8982                           	
  8983  1537                     l8423:	
  8984  1537  2D65               	goto	l5177
  8985                           	
  8986  1538                     l5183:	
  8987                           	line	65
  8988  1538  2D45               	goto	l8427
  8989                           	
  8990  1539                     l5185:	
  8991                           	line	66
  8992                           	
  8993  1539                     l8425:	
  8994  1539  3001               	movlw	01h
  8995  153A  00AB               	movwf	(??___fttol+0)+0
  8996  153B                     u3695:
  8997  153B  1003               	clrc
  8998  153C  0DB0               	rlf	(___fttol@lval),f
  8999  153D  0DB1               	rlf	(___fttol@lval+1),f
  9000  153E  0DB2               	rlf	(___fttol@lval+2),f
  9001  153F  0DB3               	rlf	(___fttol@lval+3),f
  9002  1540  0BAB               	decfsz	(??___fttol+0)+0
  9003  1541  2D3B               	goto	u3695
  9004                           	line	67
  9005  1542  3001               	movlw	low(01h)
  9006  1543  02B4               	subwf	(___fttol@exp1),f
  9007  1544  2D45               	goto	l8427
  9008                           	line	68
  9009                           	
  9010  1545                     l5184:	
  9011                           	line	65
  9012                           	
  9013  1545                     l8427:	
  9014  1545  08B4               	movf	(___fttol@exp1),f
  9015  1546  1D03               	skipz
  9016  1547  2D49               	goto	u3701
  9017  1548  2D4A               	goto	u3700
  9018  1549                     u3701:
  9019  1549  2D39               	goto	l8425
  9020  154A                     u3700:
  9021  154A  2D4C               	goto	l8429
  9022                           	
  9023  154B                     l5186:	
  9024  154B  2D4C               	goto	l8429
  9025                           	line	69
  9026                           	
  9027  154C                     l5182:	
  9028                           	line	70
  9029                           	
  9030  154C                     l8429:	
  9031  154C  082F               	movf	(___fttol@sign1),w
  9032  154D  1D03               	skipz
  9033  154E  2D50               	goto	u3710
  9034  154F  2D5C               	goto	l8433
  9035  1550                     u3710:
  9036                           	line	71
  9037                           	
  9038  1550                     l8431:	
  9039  1550  09B0               	comf	(___fttol@lval),f
  9040  1551  09B1               	comf	(___fttol@lval+1),f
  9041  1552  09B2               	comf	(___fttol@lval+2),f
  9042  1553  09B3               	comf	(___fttol@lval+3),f
  9043  1554  0AB0               	incf	(___fttol@lval),f
  9044  1555  1903               	skipnz
  9045  1556  0AB1               	incf	(___fttol@lval+1),f
  9046  1557  1903               	skipnz
  9047  1558  0AB2               	incf	(___fttol@lval+2),f
  9048  1559  1903               	skipnz
  9049  155A  0AB3               	incf	(___fttol@lval+3),f
  9050  155B  2D5C               	goto	l8433
  9051                           	
  9052  155C                     l5187:	
  9053                           	line	72
  9054                           	
  9055  155C                     l8433:	
  9056  155C  0833               	movf	(___fttol@lval+3),w
  9057  155D  00AA               	movwf	(?___fttol+3)
  9058  155E  0832               	movf	(___fttol@lval+2),w
  9059  155F  00A9               	movwf	(?___fttol+2)
  9060  1560  0831               	movf	(___fttol@lval+1),w
  9061  1561  00A8               	movwf	(?___fttol+1)
  9062  1562  0830               	movf	(___fttol@lval),w
  9063  1563  00A7               	movwf	(?___fttol)
  9064                           
  9065  1564  2D65               	goto	l5177
  9066                           	
  9067  1565                     l8435:	
  9068                           	line	73
  9069                           	
  9070  1565                     l5177:	
  9071  1565  0008               	return
  9072                           	opt stack 0
  9073                           GLOBAL	__end_of___fttol
  9074  1566                     	__end_of___fttol:
  9075 ;; =============== function ___fttol ends ============
  9076                           
  9077                           	signat	___fttol,4220
  9078                           	global	___ftpack
  9079                           psect	text619,local,class=CODE,delta=2
  9080                           global __ptext619
  9081  1445                     __ptext619:
  9082                           
  9083 ;; *************** function ___ftpack *****************
  9084 ;; Defined at:
  9085 ;;		line 63 in file "C:\Program Files (x86)\HI-TECH Software\PICC\9.82\sources\float.c"
  9086 ;; Parameters:    Size  Location     Type
  9087 ;;  arg             3    0[COMMON] unsigned um
  9088 ;;  exp             1    3[COMMON] unsigned char 
  9089 ;;  sign            1    4[COMMON] unsigned char 
  9090 ;; Auto vars:     Size  Location     Type
  9091 ;;		None
  9092 ;; Return value:  Size  Location     Type
  9093 ;;                  3    0[COMMON] float 
  9094 ;; Registers used:
  9095 ;;		wreg, status,2, status,0
  9096 ;; Tracked objects:
  9097 ;;		On entry : 0/0
  9098 ;;		On exit  : 0/0
  9099 ;;		Unchanged: 0/0
  9100 ;; Data sizes:     COMMON   BANK0   BANK1   BANK3   BANK2
  9101 ;;      Params:         5       0       0       0       0
  9102 ;;      Locals:         0       0       0       0       0
  9103 ;;      Temps:          3       0       0       0       0
  9104 ;;      Totals:         8       0       0       0       0
  9105 ;;Total ram usage:        8 bytes
  9106 ;; Hardware stack levels used:    1
  9107 ;; This function calls:
  9108 ;;		Nothing
  9109 ;; This function is called by:
  9110 ;;		___ftadd
  9111 ;;		___ftmul
  9112 ;;		___awtoft
  9113 ;;		___lltoft
  9114 ;;		___ftdiv
  9115 ;;		___lbtoft
  9116 ;;		___abtoft
  9117 ;;		___lwtoft
  9118 ;;		___altoft
  9119 ;;		___attoft
  9120 ;;		___lttoft
  9121 ;; This function uses a non-reentrant model
  9122 ;;
  9123                           psect	text619
  9124                           	file	"C:\Program Files (x86)\HI-TECH Software\PICC\9.82\sources\float.c"
  9125                           	line	63
  9126                           	global	__size_of___ftpack
  9127  007B                     	__size_of___ftpack	equ	__end_of___ftpack-___ftpack
  9128                           	
  9129  1445                     ___ftpack:	
  9130                           	opt	stack 4
  9131                           ; Regs used in ___ftpack: [wreg+status,2+status,0]
  9132                           	line	64
  9133                           	
  9134  1445                     l8325:	
  9135  1445  0873               	movf	(___ftpack@exp),w
  9136  1446  1D03               	skipz
  9137  1447  2C49               	goto	u3430
  9138  1448  2C51               	goto	l8329
  9139  1449                     u3430:
  9140                           	
  9141  1449                     l8327:	
  9142  1449  0872               	movf	(___ftpack@arg+2),w
  9143  144A  0471               	iorwf	(___ftpack@arg+1),w
  9144  144B  0470               	iorwf	(___ftpack@arg),w
  9145  144C  1D03               	skipz
  9146  144D  2C4F               	goto	u3441
  9147  144E  2C50               	goto	u3440
  9148  144F                     u3441:
  9149  144F  2C67               	goto	l8335
  9150  1450                     u3440:
  9151  1450  2C51               	goto	l8329
  9152                           	
  9153  1451                     l5435:	
  9154                           	line	65
  9155                           	
  9156  1451                     l8329:	
  9157  1451  3000               	movlw	0x0
  9158  1452  00F0               	movwf	(?___ftpack)
  9159  1453  3000               	movlw	0x0
  9160  1454  00F1               	movwf	(?___ftpack+1)
  9161  1455  3000               	movlw	0x0
  9162  1456  00F2               	movwf	(?___ftpack+2)
  9163  1457  2CBF               	goto	l5436
  9164                           	
  9165  1458                     l8331:	
  9166  1458  2CBF               	goto	l5436
  9167                           	
  9168  1459                     l5433:	
  9169                           	line	66
  9170  1459  2C67               	goto	l8335
  9171                           	
  9172  145A                     l5438:	
  9173                           	line	67
  9174                           	
  9175  145A                     l8333:	
  9176  145A  3001               	movlw	(01h)
  9177  145B  00F5               	movwf	(??___ftpack+0)+0
  9178  145C  0875               	movf	(??___ftpack+0)+0,w
  9179  145D  07F3               	addwf	(___ftpack@exp),f
  9180                           	line	68
  9181  145E  3001               	movlw	01h
  9182  145F                     u3455:
  9183  145F  1003               	clrc
  9184  1460  0CF2               	rrf	(___ftpack@arg+2),f
  9185  1461  0CF1               	rrf	(___ftpack@arg+1),f
  9186  1462  0CF0               	rrf	(___ftpack@arg),f
  9187  1463  3EFF               	addlw	-1
  9188  1464  1D03               	skipz
  9189  1465  2C5F               	goto	u3455
  9190                           
  9191  1466  2C67               	goto	l8335
  9192                           	line	69
  9193                           	
  9194  1467                     l5437:	
  9195                           	line	66
  9196                           	
  9197  1467                     l8335:	
  9198  1467  30FE               	movlw	low highword(0FE0000h)
  9199  1468  0572               	andwf	(___ftpack@arg+2),w
  9200  1469  1D03               	btfss	status,2
  9201  146A  2C6C               	goto	u3461
  9202  146B  2C6D               	goto	u3460
  9203  146C                     u3461:
  9204  146C  2C5A               	goto	l8333
  9205  146D                     u3460:
  9206  146D  2C85               	goto	l5440
  9207                           	
  9208  146E                     l5439:	
  9209                           	line	70
  9210  146E  2C85               	goto	l5440
  9211                           	
  9212  146F                     l5441:	
  9213                           	line	71
  9214                           	
  9215  146F                     l8337:	
  9216  146F  3001               	movlw	(01h)
  9217  1470  00F5               	movwf	(??___ftpack+0)+0
  9218  1471  0875               	movf	(??___ftpack+0)+0,w
  9219  1472  07F3               	addwf	(___ftpack@exp),f
  9220                           	line	72
  9221                           	
  9222  1473                     l8339:	
  9223  1473  3001               	movlw	01h
  9224  1474  07F0               	addwf	(___ftpack@arg),f
  9225  1475  3000               	movlw	0
  9226  1476  1803               	skipnc
  9227  1477  3001               movlw 1
  9228  1478  07F1               	addwf	(___ftpack@arg+1),f
  9229  1479  3000               	movlw	0
  9230  147A  1803               	skipnc
  9231  147B  3001               movlw 1
  9232  147C  07F2               	addwf	(___ftpack@arg+2),f
  9233                           	line	73
  9234                           	
  9235  147D                     l8341:	
  9236  147D  3001               	movlw	01h
  9237  147E                     u3475:
  9238  147E  1003               	clrc
  9239  147F  0CF2               	rrf	(___ftpack@arg+2),f
  9240  1480  0CF1               	rrf	(___ftpack@arg+1),f
  9241  1481  0CF0               	rrf	(___ftpack@arg),f
  9242  1482  3EFF               	addlw	-1
  9243  1483  1D03               	skipz
  9244  1484  2C7E               	goto	u3475
  9245                           
  9246                           	line	74
  9247                           	
  9248  1485                     l5440:	
  9249                           	line	70
  9250  1485  30FF               	movlw	low highword(0FF0000h)
  9251  1486  0572               	andwf	(___ftpack@arg+2),w
  9252  1487  1D03               	btfss	status,2
  9253  1488  2C8A               	goto	u3481
  9254  1489  2C8B               	goto	u3480
  9255  148A                     u3481:
  9256  148A  2C6F               	goto	l8337
  9257  148B                     u3480:
  9258  148B  2C98               	goto	l8345
  9259                           	
  9260  148C                     l5442:	
  9261                           	line	75
  9262  148C  2C98               	goto	l8345
  9263                           	
  9264  148D                     l5444:	
  9265                           	line	76
  9266                           	
  9267  148D                     l8343:	
  9268  148D  3001               	movlw	low(01h)
  9269  148E  02F3               	subwf	(___ftpack@exp),f
  9270                           	line	77
  9271  148F  3001               	movlw	01h
  9272  1490                     u3495:
  9273  1490  1003               	clrc
  9274  1491  0DF0               	rlf	(___ftpack@arg),f
  9275  1492  0DF1               	rlf	(___ftpack@arg+1),f
  9276  1493  0DF2               	rlf	(___ftpack@arg+2),f
  9277  1494  3EFF               	addlw	-1
  9278  1495  1D03               	skipz
  9279  1496  2C90               	goto	u3495
  9280  1497  2C98               	goto	l8345
  9281                           	line	78
  9282                           	
  9283  1498                     l5443:	
  9284                           	line	75
  9285                           	
  9286  1498                     l8345:	
  9287  1498  1FF1               	btfss	(___ftpack@arg+1),(15)&7
  9288  1499  2C9B               	goto	u3501
  9289  149A  2C9C               	goto	u3500
  9290  149B                     u3501:
  9291  149B  2C8D               	goto	l8343
  9292  149C                     u3500:
  9293                           	
  9294  149C                     l5445:	
  9295                           	line	79
  9296  149C  1873               	btfsc	(___ftpack@exp),(0)&7
  9297  149D  2C9F               	goto	u3511
  9298  149E  2CA0               	goto	u3510
  9299  149F                     u3511:
  9300  149F  2CA6               	goto	l5446
  9301  14A0                     u3510:
  9302                           	line	80
  9303                           	
  9304  14A0                     l8347:	
  9305  14A0  30FF               	movlw	0FFh
  9306  14A1  05F0               	andwf	(___ftpack@arg),f
  9307  14A2  307F               	movlw	07Fh
  9308  14A3  05F1               	andwf	(___ftpack@arg+1),f
  9309  14A4  30FF               	movlw	0FFh
  9310  14A5  05F2               	andwf	(___ftpack@arg+2),f
  9311                           	
  9312  14A6                     l5446:	
  9313                           	line	81
  9314  14A6  1003               	clrc
  9315  14A7  0CF3               	rrf	(___ftpack@exp),f
  9316                           
  9317                           	line	82
  9318                           	
  9319  14A8                     l8349:	
  9320  14A8  0873               	movf	(___ftpack@exp),w
  9321  14A9  00F5               	movwf	((??___ftpack+0)+0)
  9322  14AA  01F6               	clrf	((??___ftpack+0)+0+1)
  9323  14AB  01F7               	clrf	((??___ftpack+0)+0+2)
  9324  14AC  3010               	movlw	010h
  9325  14AD                     u3525:
  9326  14AD  1003               	clrc
  9327  14AE  0DF5               	rlf	(??___ftpack+0)+0,f
  9328  14AF  0DF6               	rlf	(??___ftpack+0)+1,f
  9329  14B0  0DF7               	rlf	(??___ftpack+0)+2,f
  9330  14B1                     u3520:
  9331  14B1  3EFF               	addlw	-1
  9332  14B2  1D03               	skipz
  9333  14B3  2CAD               	goto	u3525
  9334  14B4  0875               	movf	0+(??___ftpack+0)+0,w
  9335  14B5  04F0               	iorwf	(___ftpack@arg),f
  9336  14B6  0876               	movf	1+(??___ftpack+0)+0,w
  9337  14B7  04F1               	iorwf	(___ftpack@arg+1),f
  9338  14B8  0877               	movf	2+(??___ftpack+0)+0,w
  9339  14B9  04F2               	iorwf	(___ftpack@arg+2),f
  9340                           	line	83
  9341                           	
  9342  14BA                     l8351:	
  9343  14BA  0874               	movf	(___ftpack@sign),w
  9344  14BB  1D03               	skipz
  9345  14BC  2CBE               	goto	u3530
  9346  14BD  2CBF               	goto	l5447
  9347  14BE                     u3530:
  9348                           	line	84
  9349                           	
  9350  14BE                     l8353:	
  9351  14BE  17F2               	bsf	(___ftpack@arg)+(23/8),(23)&7
  9352                           	
  9353  14BF                     l5447:	
  9354                           	line	85
  9355                           	line	86
  9356                           	
  9357  14BF                     l5436:	
  9358  14BF  0008               	return
  9359                           	opt stack 0
  9360                           GLOBAL	__end_of___ftpack
  9361  14C0                     	__end_of___ftpack:
  9362 ;; =============== function ___ftpack ends ============
  9363                           
  9364                           	signat	___ftpack,12411
  9365                           	global	___wmul
  9366                           psect	text620,local,class=CODE,delta=2
  9367                           global __ptext620
  9368  114D                     __ptext620:
  9369                           
  9370 ;; *************** function ___wmul *****************
  9371 ;; Defined at:
  9372 ;;		line 3 in file "C:\Program Files (x86)\HI-TECH Software\PICC\9.82\sources\wmul.c"
  9373 ;; Parameters:    Size  Location     Type
  9374 ;;  multiplier      2    0[COMMON] unsigned int 
  9375 ;;  multiplicand    2    2[COMMON] unsigned int 
  9376 ;; Auto vars:     Size  Location     Type
  9377 ;;  product         2    4[COMMON] unsigned int 
  9378 ;; Return value:  Size  Location     Type
  9379 ;;                  2    0[COMMON] unsigned int 
  9380 ;; Registers used:
  9381 ;;		wreg, status,2, status,0
  9382 ;; Tracked objects:
  9383 ;;		On entry : 0/0
  9384 ;;		On exit  : 0/0
  9385 ;;		Unchanged: 0/0
  9386 ;; Data sizes:     COMMON   BANK0   BANK1   BANK3   BANK2
  9387 ;;      Params:         4       0       0       0       0
  9388 ;;      Locals:         2       0       0       0       0
  9389 ;;      Temps:          0       0       0       0       0
  9390 ;;      Totals:         6       0       0       0       0
  9391 ;;Total ram usage:        6 bytes
  9392 ;; Hardware stack levels used:    1
  9393 ;; This function calls:
  9394 ;;		Nothing
  9395 ;; This function is called by:
  9396 ;;		_fround
  9397 ;;		_scale
  9398 ;;		_sprintf
  9399 ;; This function uses a non-reentrant model
  9400 ;;
  9401                           psect	text620
  9402                           	file	"C:\Program Files (x86)\HI-TECH Software\PICC\9.82\sources\wmul.c"
  9403                           	line	3
  9404                           	global	__size_of___wmul
  9405  002A                     	__size_of___wmul	equ	__end_of___wmul-___wmul
  9406                           	
  9407  114D                     ___wmul:	
  9408                           	opt	stack 6
  9409                           ; Regs used in ___wmul: [wreg+status,2+status,0]
  9410                           	line	4
  9411                           	
  9412  114D                     l8313:	
  9413  114D  01F4               	clrf	(___wmul@product)
  9414  114E  01F5               	clrf	(___wmul@product+1)
  9415  114F  2950               	goto	l8315
  9416                           	line	6
  9417                           	
  9418  1150                     l5067:	
  9419                           	line	7
  9420                           	
  9421  1150                     l8315:	
  9422  1150  1C70               	btfss	(___wmul@multiplier),(0)&7
  9423  1151  2953               	goto	u3391
  9424  1152  2954               	goto	u3390
  9425  1153                     u3391:
  9426  1153  295A               	goto	l5068
  9427  1154                     u3390:
  9428                           	line	8
  9429                           	
  9430  1154                     l8317:	
  9431  1154  0872               	movf	(___wmul@multiplicand),w
  9432  1155  07F4               	addwf	(___wmul@product),f
  9433  1156  1803               	skipnc
  9434  1157  0AF5               	incf	(___wmul@product+1),f
  9435  1158  0873               	movf	(___wmul@multiplicand+1),w
  9436  1159  07F5               	addwf	(___wmul@product+1),f
  9437                           	
  9438  115A                     l5068:	
  9439                           	line	9
  9440  115A  3001               	movlw	01h
  9441                           	
  9442  115B                     u3405:
  9443  115B  1003               	clrc
  9444  115C  0DF2               	rlf	(___wmul@multiplicand),f
  9445  115D  0DF3               	rlf	(___wmul@multiplicand+1),f
  9446  115E  3EFF               	addlw	-1
  9447  115F  1D03               	skipz
  9448  1160  295B               	goto	u3405
  9449                           	line	10
  9450                           	
  9451  1161                     l8319:	
  9452  1161  3001               	movlw	01h
  9453                           	
  9454  1162                     u3415:
  9455  1162  1003               	clrc
  9456  1163  0CF1               	rrf	(___wmul@multiplier+1),f
  9457  1164  0CF0               	rrf	(___wmul@multiplier),f
  9458  1165  3EFF               	addlw	-1
  9459  1166  1D03               	skipz
  9460  1167  2962               	goto	u3415
  9461                           	line	11
  9462  1168  0871               	movf	((___wmul@multiplier+1)),w
  9463  1169  0470               	iorwf	((___wmul@multiplier)),w
  9464  116A  1D03               	skipz
  9465  116B  296D               	goto	u3421
  9466  116C  296E               	goto	u3420
  9467  116D                     u3421:
  9468  116D  2950               	goto	l8315
  9469  116E                     u3420:
  9470  116E  296F               	goto	l8321
  9471                           	
  9472  116F                     l5069:	
  9473                           	line	12
  9474                           	
  9475  116F                     l8321:	
  9476  116F  0875               	movf	(___wmul@product+1),w
  9477  1170  01F1               	clrf	(?___wmul+1)
  9478  1171  07F1               	addwf	(?___wmul+1)
  9479  1172  0874               	movf	(___wmul@product),w
  9480  1173  01F0               	clrf	(?___wmul)
  9481  1174  07F0               	addwf	(?___wmul)
  9482                           
  9483  1175  2976               	goto	l5070
  9484                           	
  9485  1176                     l8323:	
  9486                           	line	13
  9487                           	
  9488  1176                     l5070:	
  9489  1176  0008               	return
  9490                           	opt stack 0
  9491                           GLOBAL	__end_of___wmul
  9492  1177                     	__end_of___wmul:
  9493 ;; =============== function ___wmul ends ============
  9494                           
  9495                           	signat	___wmul,8314
  9496                           	global	___bmul
  9497                           psect	text621,local,class=CODE,delta=2
  9498                           global __ptext621
  9499  10EC                     __ptext621:
  9500                           
  9501 ;; *************** function ___bmul *****************
  9502 ;; Defined at:
  9503 ;;		line 3 in file "C:\Program Files (x86)\HI-TECH Software\PICC\9.82\sources\bmul.c"
  9504 ;; Parameters:    Size  Location     Type
  9505 ;;  multiplier      1    wreg     unsigned char 
  9506 ;;  multiplicand    1    4[BANK0 ] unsigned char 
  9507 ;; Auto vars:     Size  Location     Type
  9508 ;;  multiplier      1    6[BANK0 ] unsigned char 
  9509 ;;  product         1    5[BANK0 ] unsigned char 
  9510 ;; Return value:  Size  Location     Type
  9511 ;;                  1    wreg      unsigned char 
  9512 ;; Registers used:
  9513 ;;		wreg, status,2, status,0
  9514 ;; Tracked objects:
  9515 ;;		On entry : 0/0
  9516 ;;		On exit  : 0/0
  9517 ;;		Unchanged: 0/0
  9518 ;; Data sizes:     COMMON   BANK0   BANK1   BANK3   BANK2
  9519 ;;      Params:         0       1       0       0       0
  9520 ;;      Locals:         0       2       0       0       0
  9521 ;;      Temps:          1       0       0       0       0
  9522 ;;      Totals:         1       3       0       0       0
  9523 ;;Total ram usage:        4 bytes
  9524 ;; Hardware stack levels used:    1
  9525 ;; This function calls:
  9526 ;;		Nothing
  9527 ;; This function is called by:
  9528 ;;		_fround
  9529 ;;		_scale
  9530 ;; This function uses a non-reentrant model
  9531 ;;
  9532                           psect	text621
  9533                           	file	"C:\Program Files (x86)\HI-TECH Software\PICC\9.82\sources\bmul.c"
  9534                           	line	3
  9535                           	global	__size_of___bmul
  9536  001A                     	__size_of___bmul	equ	__end_of___bmul-___bmul
  9537                           	
  9538  10EC                     ___bmul:	
  9539                           	opt	stack 5
  9540                           ; Regs used in ___bmul: [wreg+status,2+status,0]
  9541                           ;___bmul@multiplier stored from wreg
  9542  10EC  1283               	bcf	status, 5	;RP0=0, select bank0
  9543  10ED  1303               	bcf	status, 6	;RP1=0, select bank0
  9544  10EE  00A6               	movwf	(___bmul@multiplier)
  9545                           	line	4
  9546                           	
  9547  10EF                     l8299:	
  9548  10EF  01A5               	clrf	(___bmul@product)
  9549                           	line	6
  9550                           	
  9551  10F0                     l5061:	
  9552                           	line	7
  9553  10F0  1C26               	btfss	(___bmul@multiplier),(0)&7
  9554  10F1  28F3               	goto	u3371
  9555  10F2  28F4               	goto	u3370
  9556  10F3                     u3371:
  9557  10F3  28F9               	goto	l8303
  9558  10F4                     u3370:
  9559                           	line	8
  9560                           	
  9561  10F4                     l8301:	
  9562  10F4  0824               	movf	(___bmul@multiplicand),w
  9563  10F5  00FC               	movwf	(??___bmul+0)+0
  9564  10F6  087C               	movf	(??___bmul+0)+0,w
  9565  10F7  07A5               	addwf	(___bmul@product),f
  9566  10F8  28F9               	goto	l8303
  9567                           	
  9568  10F9                     l5062:	
  9569                           	line	9
  9570                           	
  9571  10F9                     l8303:	
  9572  10F9  1003               	clrc
  9573  10FA  0DA4               	rlf	(___bmul@multiplicand),f
  9574                           
  9575                           	line	10
  9576                           	
  9577  10FB                     l8305:	
  9578  10FB  1003               	clrc
  9579  10FC  0CA6               	rrf	(___bmul@multiplier),f
  9580                           
  9581                           	line	11
  9582                           	
  9583  10FD                     l8307:	
  9584  10FD  08A6               	movf	(___bmul@multiplier),f
  9585  10FE  1D03               	skipz
  9586  10FF  2901               	goto	u3381
  9587  1100  2902               	goto	u3380
  9588  1101                     u3381:
  9589  1101  28F0               	goto	l5061
  9590  1102                     u3380:
  9591  1102  2903               	goto	l8309
  9592                           	
  9593  1103                     l5063:	
  9594                           	line	12
  9595                           	
  9596  1103                     l8309:	
  9597  1103  0825               	movf	(___bmul@product),w
  9598  1104  2905               	goto	l5064
  9599                           	
  9600  1105                     l8311:	
  9601                           	line	13
  9602                           	
  9603  1105                     l5064:	
  9604  1105  0008               	return
  9605                           	opt stack 0
  9606                           GLOBAL	__end_of___bmul
  9607  1106                     	__end_of___bmul:
  9608 ;; =============== function ___bmul ends ============
  9609                           
  9610                           	signat	___bmul,8313
  9611                           	global	__div_to_l_
  9612                           psect	text622,local,class=CODE,delta=2
  9613                           global __ptext622
  9614  16AC                     __ptext622:
  9615                           
  9616 ;; *************** function __div_to_l_ *****************
  9617 ;; Defined at:
  9618 ;;		line 61 in file "C:\Program Files (x86)\HI-TECH Software\PICC\9.82\sources\fldivl.c"
  9619 ;; Parameters:    Size  Location     Type
  9620 ;;  f1              3    0[COMMON] unsigned char 
  9621 ;;  f2              3    3[COMMON] unsigned char 
  9622 ;; Auto vars:     Size  Location     Type
  9623 ;;  quot            4    0[BANK0 ] unsigned long 
  9624 ;;  exp1            1    5[BANK0 ] unsigned char 
  9625 ;;  cntr            1    4[BANK0 ] unsigned char 
  9626 ;; Return value:  Size  Location     Type
  9627 ;;                  4    0[COMMON] unsigned long 
  9628 ;; Registers used:
  9629 ;;		wreg, fsr0l, fsr0h, status,2, status,0
  9630 ;; Tracked objects:
  9631 ;;		On entry : 0/0
  9632 ;;		On exit  : 0/0
  9633 ;;		Unchanged: 0/0
  9634 ;; Data sizes:     COMMON   BANK0   BANK1   BANK3   BANK2
  9635 ;;      Params:         6       0       0       0       0
  9636 ;;      Locals:         0       6       0       0       0
  9637 ;;      Temps:          8       0       0       0       0
  9638 ;;      Totals:        14       6       0       0       0
  9639 ;;Total ram usage:       20 bytes
  9640 ;; Hardware stack levels used:    1
  9641 ;; This function calls:
  9642 ;;		Nothing
  9643 ;; This function is called by:
  9644 ;;		_sprintf
  9645 ;; This function uses a non-reentrant model
  9646 ;;
  9647                           psect	text622
  9648                           	file	"C:\Program Files (x86)\HI-TECH Software\PICC\9.82\sources\fldivl.c"
  9649                           	line	61
  9650                           	global	__size_of__div_to_l_
  9651  0154                     	__size_of__div_to_l_	equ	__end_of__div_to_l_-__div_to_l_
  9652                           	
  9653  16AC                     __div_to_l_:	
  9654                           	opt	stack 6
  9655                           ; Regs used in __div_to_l_: [wreg-fsr0h+status,2+status,0]
  9656                           	line	66
  9657                           	
  9658  16AC                     l8245:	
  9659  16AC  3070               	movlw	low(__div_to_l_@f1)
  9660  16AD  0084               	movwf	fsr0
  9661  16AE  0800               	movf	indf,w
  9662  16AF  00F6               	movwf	(??__div_to_l_+0)+0+0
  9663  16B0  0A84               	incf	fsr0,f
  9664  16B1  0800               	movf	indf,w
  9665  16B2  00F7               	movwf	(??__div_to_l_+0)+0+1
  9666  16B3  0A84               	incf	fsr0,f
  9667  16B4  0800               	movf	indf,w
  9668  16B5  00F8               	movwf	(??__div_to_l_+0)+0+2
  9669  16B6  0A84               	incf	fsr0,f
  9670  16B7  0800               	movf	indf,w
  9671  16B8  00F9               	movwf	(??__div_to_l_+0)+0+3
  9672  16B9  1003               	clrc
  9673  16BA  0D78               	rlf	(??__div_to_l_+0)+2,w
  9674  16BB  0D79               	rlf	(??__div_to_l_+0)+3,w
  9675  16BC  00FA               	movwf	(??__div_to_l_+4)+0
  9676  16BD  087A               	movf	(??__div_to_l_+4)+0,w
  9677  16BE  1283               	bcf	status, 5	;RP0=0, select bank0
  9678  16BF  1303               	bcf	status, 6	;RP1=0, select bank0
  9679  16C0  00A5               	movwf	(__div_to_l_@exp1)
  9680  16C1  08A5               	movf	((__div_to_l_@exp1)),f
  9681  16C2  1D03               	skipz
  9682  16C3  2EC5               	goto	u3241
  9683  16C4  2EC6               	goto	u3240
  9684  16C5                     u3241:
  9685  16C5  2ED0               	goto	l8251
  9686  16C6                     u3240:
  9687                           	line	67
  9688                           	
  9689  16C6                     l8247:	
  9690  16C6  3000               	movlw	0
  9691  16C7  00F3               	movwf	(?__div_to_l_+3)
  9692  16C8  3000               	movlw	0
  9693  16C9  00F2               	movwf	(?__div_to_l_+2)
  9694  16CA  3000               	movlw	0
  9695  16CB  00F1               	movwf	(?__div_to_l_+1)
  9696  16CC  3000               	movlw	0
  9697  16CD  00F0               	movwf	(?__div_to_l_)
  9698                           
  9699  16CE  2FFF               	goto	l5354
  9700                           	
  9701  16CF                     l8249:	
  9702  16CF  2FFF               	goto	l5354
  9703                           	
  9704  16D0                     l5353:	
  9705                           	line	68
  9706                           	
  9707  16D0                     l8251:	
  9708  16D0  3073               	movlw	low(__div_to_l_@f2)
  9709  16D1  0084               	movwf	fsr0
  9710  16D2  0800               	movf	indf,w
  9711  16D3  00F6               	movwf	(??__div_to_l_+0)+0+0
  9712  16D4  0A84               	incf	fsr0,f
  9713  16D5  0800               	movf	indf,w
  9714  16D6  00F7               	movwf	(??__div_to_l_+0)+0+1
  9715  16D7  0A84               	incf	fsr0,f
  9716  16D8  0800               	movf	indf,w
  9717  16D9  00F8               	movwf	(??__div_to_l_+0)+0+2
  9718  16DA  0A84               	incf	fsr0,f
  9719  16DB  0800               	movf	indf,w
  9720  16DC  00F9               	movwf	(??__div_to_l_+0)+0+3
  9721  16DD  1003               	clrc
  9722  16DE  0D78               	rlf	(??__div_to_l_+0)+2,w
  9723  16DF  0D79               	rlf	(??__div_to_l_+0)+3,w
  9724  16E0  00FA               	movwf	(??__div_to_l_+4)+0
  9725  16E1  087A               	movf	(??__div_to_l_+4)+0,w
  9726  16E2  00A4               	movwf	(__div_to_l_@cntr)
  9727  16E3  08A4               	movf	((__div_to_l_@cntr)),f
  9728  16E4  1D03               	skipz
  9729  16E5  2EE7               	goto	u3251
  9730  16E6  2EE8               	goto	u3250
  9731  16E7                     u3251:
  9732  16E7  2EF2               	goto	l8257
  9733  16E8                     u3250:
  9734                           	line	69
  9735                           	
  9736  16E8                     l8253:	
  9737  16E8  3000               	movlw	0
  9738  16E9  00F3               	movwf	(?__div_to_l_+3)
  9739  16EA  3000               	movlw	0
  9740  16EB  00F2               	movwf	(?__div_to_l_+2)
  9741  16EC  3000               	movlw	0
  9742  16ED  00F1               	movwf	(?__div_to_l_+1)
  9743  16EE  3000               	movlw	0
  9744  16EF  00F0               	movwf	(?__div_to_l_)
  9745                           
  9746  16F0  2FFF               	goto	l5354
  9747                           	
  9748  16F1                     l8255:	
  9749  16F1  2FFF               	goto	l5354
  9750                           	
  9751  16F2                     l5355:	
  9752                           	line	70
  9753                           	
  9754  16F2                     l8257:	
  9755  16F2  3070               	movlw	low(__div_to_l_@f1)
  9756  16F3  0084               	movwf	fsr0
  9757  16F4  3000               	movlw	0
  9758  16F5  0480               	iorwf	indf,f
  9759  16F6  0A84               	incf	fsr0,f
  9760  16F7  3000               	movlw	0
  9761  16F8  0480               	iorwf	indf,f
  9762  16F9  0A84               	incf	fsr0,f
  9763  16FA  3080               	movlw	080h
  9764  16FB  0480               	iorwf	indf,f
  9765  16FC  0A84               	incf	fsr0,f
  9766  16FD  3000               	movlw	0
  9767  16FE  0480               	iorwf	indf,f
  9768                           	line	71
  9769  16FF  3070               	movlw	low(__div_to_l_@f1)
  9770  1700  0084               	movwf	fsr0
  9771  1701  30FF               	movlw	0FFh
  9772  1702  0580               	andwf	indf,f
  9773  1703  0A84               	incf	fsr0,f
  9774  1704  30FF               	movlw	0FFh
  9775  1705  0580               	andwf	indf,f
  9776  1706  0A84               	incf	fsr0,f
  9777  1707  30FF               	movlw	0FFh
  9778  1708  0580               	andwf	indf,f
  9779  1709  0A84               	incf	fsr0,f
  9780  170A  3000               	movlw	0
  9781  170B  0580               	andwf	indf,f
  9782                           	line	72
  9783  170C  3073               	movlw	low(__div_to_l_@f2)
  9784  170D  0084               	movwf	fsr0
  9785  170E  3000               	movlw	0
  9786  170F  0480               	iorwf	indf,f
  9787  1710  0A84               	incf	fsr0,f
  9788  1711  3000               	movlw	0
  9789  1712  0480               	iorwf	indf,f
  9790  1713  0A84               	incf	fsr0,f
  9791  1714  3080               	movlw	080h
  9792  1715  0480               	iorwf	indf,f
  9793  1716  0A84               	incf	fsr0,f
  9794  1717  3000               	movlw	0
  9795  1718  0480               	iorwf	indf,f
  9796                           	line	73
  9797  1719  3073               	movlw	low(__div_to_l_@f2)
  9798  171A  0084               	movwf	fsr0
  9799  171B  30FF               	movlw	0FFh
  9800  171C  0580               	andwf	indf,f
  9801  171D  0A84               	incf	fsr0,f
  9802  171E  30FF               	movlw	0FFh
  9803  171F  0580               	andwf	indf,f
  9804  1720  0A84               	incf	fsr0,f
  9805  1721  30FF               	movlw	0FFh
  9806  1722  0580               	andwf	indf,f
  9807  1723  0A84               	incf	fsr0,f
  9808  1724  3000               	movlw	0
  9809  1725  0580               	andwf	indf,f
  9810                           	line	74
  9811                           	
  9812  1726                     l8259:	
  9813  1726  3000               	movlw	0
  9814  1727  00A3               	movwf	(__div_to_l_@quot+3)
  9815  1728  3000               	movlw	0
  9816  1729  00A2               	movwf	(__div_to_l_@quot+2)
  9817  172A  3000               	movlw	0
  9818  172B  00A1               	movwf	(__div_to_l_@quot+1)
  9819  172C  3000               	movlw	0
  9820  172D  00A0               	movwf	(__div_to_l_@quot)
  9821                           
  9822                           	line	75
  9823                           	
  9824  172E                     l8261:	
  9825  172E  307F               	movlw	low(07Fh)
  9826  172F  02A5               	subwf	(__div_to_l_@exp1),f
  9827                           	line	76
  9828                           	
  9829  1730                     l8263:	
  9830  1730  30A0               	movlw	(0A0h)
  9831  1731  0724               	addwf	(__div_to_l_@cntr),w
  9832  1732  00F6               	movwf	(??__div_to_l_+0)+0
  9833  1733  0876               	movf	0+(??__div_to_l_+0)+0,w
  9834  1734  02A5               	subwf	(__div_to_l_@exp1),f
  9835                           	line	77
  9836                           	
  9837  1735                     l8265:	
  9838  1735  3020               	movlw	(020h)
  9839  1736  00F6               	movwf	(??__div_to_l_+0)+0
  9840  1737  0876               	movf	(??__div_to_l_+0)+0,w
  9841  1738  00A4               	movwf	(__div_to_l_@cntr)
  9842  1739  2F3A               	goto	l8267
  9843                           	line	78
  9844                           	
  9845  173A                     l5356:	
  9846                           	line	79
  9847                           	
  9848  173A                     l8267:	
  9849  173A  3001               	movlw	01h
  9850  173B  00F6               	movwf	(??__div_to_l_+0)+0
  9851  173C                     u3265:
  9852  173C  1003               	clrc
  9853  173D  0DA0               	rlf	(__div_to_l_@quot),f
  9854  173E  0DA1               	rlf	(__div_to_l_@quot+1),f
  9855  173F  0DA2               	rlf	(__div_to_l_@quot+2),f
  9856  1740  0DA3               	rlf	(__div_to_l_@quot+3),f
  9857  1741  0BF6               	decfsz	(??__div_to_l_+0)+0
  9858  1742  2F3C               	goto	u3265
  9859                           	line	80
  9860                           	
  9861  1743                     l8269:	
  9862  1743  3073               	movlw	low(__div_to_l_@f2)
  9863  1744  0084               	movwf	fsr0
  9864  1745  0800               	movf	indf,w
  9865  1746  00F6               	movwf	(??__div_to_l_+0)+0+0
  9866  1747  0A84               	incf	fsr0,f
  9867  1748  0800               	movf	indf,w
  9868  1749  00F7               	movwf	(??__div_to_l_+0)+0+1
  9869  174A  0A84               	incf	fsr0,f
  9870  174B  0800               	movf	indf,w
  9871  174C  00F8               	movwf	(??__div_to_l_+0)+0+2
  9872  174D  0A84               	incf	fsr0,f
  9873  174E  0800               	movf	indf,w
  9874  174F  00F9               	movwf	(??__div_to_l_+0)+0+3
  9875  1750  3070               	movlw	low(__div_to_l_@f1)
  9876  1751  0084               	movwf	fsr0
  9877  1752  0800               	movf	indf,w
  9878  1753  00FA               	movwf	(??__div_to_l_+4)+0+0
  9879  1754  0A84               	incf	fsr0,f
  9880  1755  0800               	movf	indf,w
  9881  1756  00FB               	movwf	(??__div_to_l_+4)+0+1
  9882  1757  0A84               	incf	fsr0,f
  9883  1758  0800               	movf	indf,w
  9884  1759  00FC               	movwf	(??__div_to_l_+4)+0+2
  9885  175A  0A84               	incf	fsr0,f
  9886  175B  0800               	movf	indf,w
  9887  175C  00FD               	movwf	(??__div_to_l_+4)+0+3
  9888  175D  0879               	movf	3+(??__div_to_l_+0)+0,w
  9889  175E  027D               	subwf	3+(??__div_to_l_+4)+0,w
  9890  175F  1D03               	skipz
  9891  1760  2F6B               	goto	u3275
  9892  1761  0878               	movf	2+(??__div_to_l_+0)+0,w
  9893  1762  027C               	subwf	2+(??__div_to_l_+4)+0,w
  9894  1763  1D03               	skipz
  9895  1764  2F6B               	goto	u3275
  9896  1765  0877               	movf	1+(??__div_to_l_+0)+0,w
  9897  1766  027B               	subwf	1+(??__div_to_l_+4)+0,w
  9898  1767  1D03               	skipz
  9899  1768  2F6B               	goto	u3275
  9900  1769  0876               	movf	0+(??__div_to_l_+0)+0,w
  9901  176A  027A               	subwf	0+(??__div_to_l_+4)+0,w
  9902  176B                     u3275:
  9903  176B  1C03               	skipc
  9904  176C  2F6E               	goto	u3271
  9905  176D  2F6F               	goto	u3270
  9906  176E                     u3271:
  9907  176E  2F92               	goto	l5357
  9908  176F                     u3270:
  9909                           	line	81
  9910                           	
  9911  176F                     l8271:	
  9912  176F  3073               	movlw	low(__div_to_l_@f2)
  9913  1770  0084               	movwf	fsr0
  9914  1771  0800               	movf	indf,w
  9915  1772  00F6               	movwf	(??__div_to_l_+0)+0+0
  9916  1773  0A84               	incf	fsr0,f
  9917  1774  0800               	movf	indf,w
  9918  1775  00F7               	movwf	(??__div_to_l_+0)+0+1
  9919  1776  0A84               	incf	fsr0,f
  9920  1777  0800               	movf	indf,w
  9921  1778  00F8               	movwf	(??__div_to_l_+0)+0+2
  9922  1779  0A84               	incf	fsr0,f
  9923  177A  0800               	movf	indf,w
  9924  177B  00F9               	movwf	(??__div_to_l_+0)+0+3
  9925  177C  3070               	movlw	low(__div_to_l_@f1)
  9926  177D  0084               	movwf	fsr0
  9927  177E  0876               	movf	0+(??__div_to_l_+0)+0,w
  9928  177F  0280               	subwf	indf,f
  9929  1780  0A84               	incf	fsr0
  9930  1781  0877               	movf	1+(??__div_to_l_+0)+0,w
  9931  1782  1C03               	skipc
  9932  1783  0F77               	incfsz	1+(??__div_to_l_+0)+0,w
  9933  1784  0280               	subwf	indf,f
  9934  1785  0A84               	incf	fsr0
  9935  1786  0878               	movf	2+(??__div_to_l_+0)+0,w
  9936  1787  1C03               	skipc
  9937  1788  0F78               	incfsz	2+(??__div_to_l_+0)+0,w
  9938  1789  0280               	subwf	indf,f
  9939  178A  0A84               	incf	fsr0
  9940  178B  0879               	movf	3+(??__div_to_l_+0)+0,w
  9941  178C  1C03               	skipc
  9942  178D  0A79               	incf	3+(??__div_to_l_+0)+0,w
  9943  178E  0280               	subwf	indf,f
  9944  178F  3003               	movlw	3
  9945  1790  0284               	subwf	fsr0
  9946                           	line	82
  9947                           	
  9948  1791                     l8273:	
  9949  1791  1420               	bsf	(__div_to_l_@quot)+(0/8),(0)&7
  9950                           	line	83
  9951                           	
  9952  1792                     l5357:	
  9953                           	line	84
  9954  1792  3070               	movlw	low(__div_to_l_@f1)
  9955  1793  0084               	movwf	fsr0
  9956  1794  3001               	movlw	01h
  9957  1795                     u3285:
  9958  1795  1003               	clrc
  9959  1796  0D80               	rlf	indf,f
  9960  1797  0A84               	incf	fsr0,f
  9961  1798  0D80               	rlf	indf,f
  9962  1799  0A84               	incf	fsr0,f
  9963  179A  0D80               	rlf	indf,f
  9964  179B  0A84               	incf	fsr0,f
  9965  179C  0D80               	rlf	indf,f
  9966  179D  0384               	decf	fsr0,f
  9967  179E  0384               	decf	fsr0,f
  9968  179F  0384               	decf	fsr0,f
  9969  17A0  3EFF               	addlw	-1
  9970  17A1  1D03               	skipz
  9971  17A2  2F95               	goto	u3285
  9972                           	line	85
  9973                           	
  9974  17A3                     l8275:	
  9975  17A3  3001               	movlw	low(01h)
  9976  17A4  02A4               	subwf	(__div_to_l_@cntr),f
  9977  17A5  1D03               	btfss	status,2
  9978  17A6  2FA8               	goto	u3291
  9979  17A7  2FA9               	goto	u3290
  9980  17A8                     u3291:
  9981  17A8  2F3A               	goto	l8267
  9982  17A9                     u3290:
  9983                           	
  9984  17A9                     l5358:	
  9985                           	line	86
  9986  17A9  1FA5               	btfss	(__div_to_l_@exp1),7
  9987  17AA  2FAC               	goto	u3301
  9988  17AB  2FAD               	goto	u3300
  9989  17AC                     u3301:
  9990  17AC  2FD2               	goto	l8285
  9991  17AD                     u3300:
  9992                           	line	87
  9993                           	
  9994  17AD                     l8277:	
  9995  17AD  0825               	movf	(__div_to_l_@exp1),w
  9996  17AE  3A80               	xorlw	80h
  9997  17AF  3E9F               	addlw	-((-31)^80h)
  9998  17B0  1803               	skipnc
  9999  17B1  2FB3               	goto	u3311
 10000  17B2  2FB4               	goto	u3310
 10001  17B3                     u3311:
 10002  17B3  2FBF               	goto	l8283
 10003  17B4                     u3310:
 10004                           	line	88
 10005                           	
 10006  17B4                     l8279:	
 10007  17B4  3000               	movlw	0
 10008  17B5  00F3               	movwf	(?__div_to_l_+3)
 10009  17B6  3000               	movlw	0
 10010  17B7  00F2               	movwf	(?__div_to_l_+2)
 10011  17B8  3000               	movlw	0
 10012  17B9  00F1               	movwf	(?__div_to_l_+1)
 10013  17BA  3000               	movlw	0
 10014  17BB  00F0               	movwf	(?__div_to_l_)
 10015                           
 10016  17BC  2FFF               	goto	l5354
 10017                           	
 10018  17BD                     l8281:	
 10019  17BD  2FFF               	goto	l5354
 10020                           	
 10021  17BE                     l5360:	
 10022  17BE  2FBF               	goto	l8283
 10023                           	line	89
 10024                           	
 10025  17BF                     l5361:	
 10026                           	line	90
 10027                           	
 10028  17BF                     l8283:	
 10029  17BF  3001               	movlw	01h
 10030  17C0                     u3325:
 10031  17C0  1003               	clrc
 10032  17C1  0CA3               	rrf	(__div_to_l_@quot+3),f
 10033  17C2  0CA2               	rrf	(__div_to_l_@quot+2),f
 10034  17C3  0CA1               	rrf	(__div_to_l_@quot+1),f
 10035  17C4  0CA0               	rrf	(__div_to_l_@quot),f
 10036  17C5  3EFF               	addlw	-1
 10037  17C6  1D03               	skipz
 10038  17C7  2FC0               	goto	u3325
 10039                           
 10040                           	line	91
 10041  17C8  3001               	movlw	(01h)
 10042  17C9  00F6               	movwf	(??__div_to_l_+0)+0
 10043  17CA  0876               	movf	(??__div_to_l_+0)+0,w
 10044  17CB  07A5               	addwf	(__div_to_l_@exp1),f
 10045  17CC  1D03               	btfss	status,2
 10046  17CD  2FCF               	goto	u3331
 10047  17CE  2FD0               	goto	u3330
 10048  17CF                     u3331:
 10049  17CF  2FBF               	goto	l8283
 10050  17D0                     u3330:
 10051  17D0  2FF6               	goto	l8295
 10052                           	
 10053  17D1                     l5362:	
 10054                           	line	92
 10055  17D1  2FF6               	goto	l8295
 10056                           	
 10057  17D2                     l5359:	
 10058                           	line	93
 10059                           	
 10060  17D2                     l8285:	
 10061  17D2  3020               	movlw	(020h)
 10062  17D3  0225               	subwf	(__div_to_l_@exp1),w
 10063  17D4  1C03               	skipc
 10064  17D5  2FD7               	goto	u3341
 10065  17D6  2FD8               	goto	u3340
 10066  17D7                     u3341:
 10067  17D7  2FEF               	goto	l8293
 10068  17D8                     u3340:
 10069                           	line	94
 10070                           	
 10071  17D8                     l8287:	
 10072  17D8  3000               	movlw	0
 10073  17D9  00F3               	movwf	(?__div_to_l_+3)
 10074  17DA  3000               	movlw	0
 10075  17DB  00F2               	movwf	(?__div_to_l_+2)
 10076  17DC  3000               	movlw	0
 10077  17DD  00F1               	movwf	(?__div_to_l_+1)
 10078  17DE  3000               	movlw	0
 10079  17DF  00F0               	movwf	(?__div_to_l_)
 10080                           
 10081  17E0  2FFF               	goto	l5354
 10082                           	
 10083  17E1                     l8289:	
 10084  17E1  2FFF               	goto	l5354
 10085                           	
 10086  17E2                     l5364:	
 10087                           	line	95
 10088  17E2  2FEF               	goto	l8293
 10089                           	
 10090  17E3                     l5366:	
 10091                           	line	96
 10092                           	
 10093  17E3                     l8291:	
 10094  17E3  3001               	movlw	01h
 10095  17E4  00F6               	movwf	(??__div_to_l_+0)+0
 10096  17E5                     u3355:
 10097  17E5  1003               	clrc
 10098  17E6  0DA0               	rlf	(__div_to_l_@quot),f
 10099  17E7  0DA1               	rlf	(__div_to_l_@quot+1),f
 10100  17E8  0DA2               	rlf	(__div_to_l_@quot+2),f
 10101  17E9  0DA3               	rlf	(__div_to_l_@quot+3),f
 10102  17EA  0BF6               	decfsz	(??__div_to_l_+0)+0
 10103  17EB  2FE5               	goto	u3355
 10104                           	line	97
 10105  17EC  3001               	movlw	low(01h)
 10106  17ED  02A5               	subwf	(__div_to_l_@exp1),f
 10107  17EE  2FEF               	goto	l8293
 10108                           	line	98
 10109                           	
 10110  17EF                     l5365:	
 10111                           	line	95
 10112                           	
 10113  17EF                     l8293:	
 10114  17EF  08A5               	movf	(__div_to_l_@exp1),f
 10115  17F0  1D03               	skipz
 10116  17F1  2FF3               	goto	u3361
 10117  17F2  2FF4               	goto	u3360
 10118  17F3                     u3361:
 10119  17F3  2FE3               	goto	l8291
 10120  17F4                     u3360:
 10121  17F4  2FF6               	goto	l8295
 10122                           	
 10123  17F5                     l5367:	
 10124  17F5  2FF6               	goto	l8295
 10125                           	line	99
 10126                           	
 10127  17F6                     l5363:	
 10128                           	line	100
 10129                           	
 10130  17F6                     l8295:	
 10131  17F6  0823               	movf	(__div_to_l_@quot+3),w
 10132  17F7  00F3               	movwf	(?__div_to_l_+3)
 10133  17F8  0822               	movf	(__div_to_l_@quot+2),w
 10134  17F9  00F2               	movwf	(?__div_to_l_+2)
 10135  17FA  0821               	movf	(__div_to_l_@quot+1),w
 10136  17FB  00F1               	movwf	(?__div_to_l_+1)
 10137  17FC  0820               	movf	(__div_to_l_@quot),w
 10138  17FD  00F0               	movwf	(?__div_to_l_)
 10139                           
 10140  17FE  2FFF               	goto	l5354
 10141                           	
 10142  17FF                     l8297:	
 10143                           	line	101
 10144                           	
 10145  17FF                     l5354:	
 10146  17FF  0008               	return
 10147                           	opt stack 0
 10148                           GLOBAL	__end_of__div_to_l_
 10149  1800                     	__end_of__div_to_l_:
 10150 ;; =============== function __div_to_l_ ends ============
 10151                           
 10152                           	signat	__div_to_l_,8316
 10153                           	global	__tdiv_to_l_
 10154                           psect	text623,local,class=CODE,delta=2
 10155                           global __ptext623
 10156  0827                     __ptext623:
 10157                           
 10158 ;; *************** function __tdiv_to_l_ *****************
 10159 ;; Defined at:
 10160 ;;		line 61 in file "C:\Program Files (x86)\HI-TECH Software\PICC\9.82\sources\ftdivl.c"
 10161 ;; Parameters:    Size  Location     Type
 10162 ;;  f1              3    0[COMMON] float 
 10163 ;;  f2              3    3[COMMON] float 
 10164 ;; Auto vars:     Size  Location     Type
 10165 ;;  quot            4    0[BANK0 ] unsigned long 
 10166 ;;  exp1            1    5[BANK0 ] unsigned char 
 10167 ;;  cntr            1    4[BANK0 ] unsigned char 
 10168 ;; Return value:  Size  Location     Type
 10169 ;;                  4    0[COMMON] unsigned long 
 10170 ;; Registers used:
 10171 ;;		wreg, status,2, status,0
 10172 ;; Tracked objects:
 10173 ;;		On entry : 0/0
 10174 ;;		On exit  : 0/0
 10175 ;;		Unchanged: 0/0
 10176 ;; Data sizes:     COMMON   BANK0   BANK1   BANK3   BANK2
 10177 ;;      Params:         6       0       0       0       0
 10178 ;;      Locals:         0       6       0       0       0
 10179 ;;      Temps:          4       0       0       0       0
 10180 ;;      Totals:        10       6       0       0       0
 10181 ;;Total ram usage:       16 bytes
 10182 ;; Hardware stack levels used:    1
 10183 ;; This function calls:
 10184 ;;		Nothing
 10185 ;; This function is called by:
 10186 ;;		_sprintf
 10187 ;; This function uses a non-reentrant model
 10188 ;;
 10189                           psect	text623
 10190                           	file	"C:\Program Files (x86)\HI-TECH Software\PICC\9.82\sources\ftdivl.c"
 10191                           	line	61
 10192                           	global	__size_of__tdiv_to_l_
 10193  00E2                     	__size_of__tdiv_to_l_	equ	__end_of__tdiv_to_l_-__tdiv_to_l_
 10194                           	
 10195  0827                     __tdiv_to_l_:	
 10196                           	opt	stack 6
 10197                           ; Regs used in __tdiv_to_l_: [wreg+status,2+status,0]
 10198                           	line	66
 10199                           	
 10200  0827                     l8191:	
 10201  0827  0870               	movf	(__tdiv_to_l_@f1),w
 10202  0828  00F6               	movwf	((??__tdiv_to_l_+0)+0)
 10203  0829  0871               	movf	(__tdiv_to_l_@f1+1),w
 10204  082A  00F7               	movwf	((??__tdiv_to_l_+0)+0+1)
 10205  082B  0872               	movf	(__tdiv_to_l_@f1+2),w
 10206  082C  00F8               	movwf	((??__tdiv_to_l_+0)+0+2)
 10207  082D  1003               	clrc
 10208  082E  0D77               	rlf	(??__tdiv_to_l_+0)+1,w
 10209  082F  0D78               	rlf	(??__tdiv_to_l_+0)+2,w
 10210  0830  00F9               	movwf	(??__tdiv_to_l_+3)+0
 10211  0831  0879               	movf	(??__tdiv_to_l_+3)+0,w
 10212  0832  1283               	bcf	status, 5	;RP0=0, select bank0
 10213  0833  1303               	bcf	status, 6	;RP1=0, select bank0
 10214  0834  00A5               	movwf	(__tdiv_to_l_@exp1)
 10215  0835  08A5               	movf	((__tdiv_to_l_@exp1)),f
 10216  0836  1D03               	skipz
 10217  0837  2839               	goto	u3111
 10218  0838  283A               	goto	u3110
 10219  0839                     u3111:
 10220  0839  2844               	goto	l8197
 10221  083A                     u3110:
 10222                           	line	67
 10223                           	
 10224  083A                     l8193:	
 10225  083A  3000               	movlw	0
 10226  083B  00F3               	movwf	(?__tdiv_to_l_+3)
 10227  083C  3000               	movlw	0
 10228  083D  00F2               	movwf	(?__tdiv_to_l_+2)
 10229  083E  3000               	movlw	0
 10230  083F  00F1               	movwf	(?__tdiv_to_l_+1)
 10231  0840  3000               	movlw	0
 10232  0841  00F0               	movwf	(?__tdiv_to_l_)
 10233                           
 10234  0842  2908               	goto	l5311
 10235                           	
 10236  0843                     l8195:	
 10237  0843  2908               	goto	l5311
 10238                           	
 10239  0844                     l5310:	
 10240                           	line	68
 10241                           	
 10242  0844                     l8197:	
 10243  0844  0873               	movf	(__tdiv_to_l_@f2),w
 10244  0845  00F6               	movwf	((??__tdiv_to_l_+0)+0)
 10245  0846  0874               	movf	(__tdiv_to_l_@f2+1),w
 10246  0847  00F7               	movwf	((??__tdiv_to_l_+0)+0+1)
 10247  0848  0875               	movf	(__tdiv_to_l_@f2+2),w
 10248  0849  00F8               	movwf	((??__tdiv_to_l_+0)+0+2)
 10249  084A  1003               	clrc
 10250  084B  0D77               	rlf	(??__tdiv_to_l_+0)+1,w
 10251  084C  0D78               	rlf	(??__tdiv_to_l_+0)+2,w
 10252  084D  00F9               	movwf	(??__tdiv_to_l_+3)+0
 10253  084E  0879               	movf	(??__tdiv_to_l_+3)+0,w
 10254  084F  00A4               	movwf	(__tdiv_to_l_@cntr)
 10255  0850  08A4               	movf	((__tdiv_to_l_@cntr)),f
 10256  0851  1D03               	skipz
 10257  0852  2854               	goto	u3121
 10258  0853  2855               	goto	u3120
 10259  0854                     u3121:
 10260  0854  285F               	goto	l5312
 10261  0855                     u3120:
 10262                           	line	69
 10263                           	
 10264  0855                     l8199:	
 10265  0855  3000               	movlw	0
 10266  0856  00F3               	movwf	(?__tdiv_to_l_+3)
 10267  0857  3000               	movlw	0
 10268  0858  00F2               	movwf	(?__tdiv_to_l_+2)
 10269  0859  3000               	movlw	0
 10270  085A  00F1               	movwf	(?__tdiv_to_l_+1)
 10271  085B  3000               	movlw	0
 10272  085C  00F0               	movwf	(?__tdiv_to_l_)
 10273                           
 10274  085D  2908               	goto	l5311
 10275                           	
 10276  085E                     l8201:	
 10277  085E  2908               	goto	l5311
 10278                           	
 10279  085F                     l5312:	
 10280                           	line	70
 10281  085F  17F1               	bsf	(__tdiv_to_l_@f1)+(15/8),(15)&7
 10282                           	line	71
 10283                           	
 10284  0860                     l8203:	
 10285  0860  30FF               	movlw	0FFh
 10286  0861  05F0               	andwf	(__tdiv_to_l_@f1),f
 10287  0862  30FF               	movlw	0FFh
 10288  0863  05F1               	andwf	(__tdiv_to_l_@f1+1),f
 10289  0864  3000               	movlw	0
 10290  0865  05F2               	andwf	(__tdiv_to_l_@f1+2),f
 10291                           	line	72
 10292                           	
 10293  0866                     l8205:	
 10294  0866  17F4               	bsf	(__tdiv_to_l_@f2)+(15/8),(15)&7
 10295                           	line	73
 10296  0867  30FF               	movlw	0FFh
 10297  0868  05F3               	andwf	(__tdiv_to_l_@f2),f
 10298  0869  30FF               	movlw	0FFh
 10299  086A  05F4               	andwf	(__tdiv_to_l_@f2+1),f
 10300  086B  3000               	movlw	0
 10301  086C  05F5               	andwf	(__tdiv_to_l_@f2+2),f
 10302                           	line	74
 10303  086D  3000               	movlw	0
 10304  086E  00A3               	movwf	(__tdiv_to_l_@quot+3)
 10305  086F  3000               	movlw	0
 10306  0870  00A2               	movwf	(__tdiv_to_l_@quot+2)
 10307  0871  3000               	movlw	0
 10308  0872  00A1               	movwf	(__tdiv_to_l_@quot+1)
 10309  0873  3000               	movlw	0
 10310  0874  00A0               	movwf	(__tdiv_to_l_@quot)
 10311                           
 10312                           	line	75
 10313                           	
 10314  0875                     l8207:	
 10315  0875  307F               	movlw	low(07Fh)
 10316  0876  02A5               	subwf	(__tdiv_to_l_@exp1),f
 10317                           	line	76
 10318                           	
 10319  0877                     l8209:	
 10320  0877  3098               	movlw	(098h)
 10321  0878  0724               	addwf	(__tdiv_to_l_@cntr),w
 10322  0879  00F6               	movwf	(??__tdiv_to_l_+0)+0
 10323  087A  0876               	movf	0+(??__tdiv_to_l_+0)+0,w
 10324  087B  02A5               	subwf	(__tdiv_to_l_@exp1),f
 10325                           	line	77
 10326  087C  3018               	movlw	(018h)
 10327  087D  00F6               	movwf	(??__tdiv_to_l_+0)+0
 10328  087E  0876               	movf	(??__tdiv_to_l_+0)+0,w
 10329  087F  00A4               	movwf	(__tdiv_to_l_@cntr)
 10330  0880  2881               	goto	l8211
 10331                           	line	78
 10332                           	
 10333  0881                     l5313:	
 10334                           	line	79
 10335                           	
 10336  0881                     l8211:	
 10337  0881  3001               	movlw	01h
 10338  0882  00F6               	movwf	(??__tdiv_to_l_+0)+0
 10339  0883                     u3135:
 10340  0883  1003               	clrc
 10341  0884  0DA0               	rlf	(__tdiv_to_l_@quot),f
 10342  0885  0DA1               	rlf	(__tdiv_to_l_@quot+1),f
 10343  0886  0DA2               	rlf	(__tdiv_to_l_@quot+2),f
 10344  0887  0DA3               	rlf	(__tdiv_to_l_@quot+3),f
 10345  0888  0BF6               	decfsz	(??__tdiv_to_l_+0)+0
 10346  0889  2883               	goto	u3135
 10347                           	line	80
 10348                           	
 10349  088A                     l8213:	
 10350  088A  0875               	movf	(__tdiv_to_l_@f2+2),w
 10351  088B  0272               	subwf	(__tdiv_to_l_@f1+2),w
 10352  088C  1D03               	skipz
 10353  088D  2894               	goto	u3145
 10354  088E  0874               	movf	(__tdiv_to_l_@f2+1),w
 10355  088F  0271               	subwf	(__tdiv_to_l_@f1+1),w
 10356  0890  1D03               	skipz
 10357  0891  2894               	goto	u3145
 10358  0892  0873               	movf	(__tdiv_to_l_@f2),w
 10359  0893  0270               	subwf	(__tdiv_to_l_@f1),w
 10360  0894                     u3145:
 10361  0894  1C03               	skipc
 10362  0895  2897               	goto	u3141
 10363  0896  2898               	goto	u3140
 10364  0897                     u3141:
 10365  0897  28A4               	goto	l8219
 10366  0898                     u3140:
 10367                           	line	81
 10368                           	
 10369  0898                     l8215:	
 10370  0898  0873               	movf	(__tdiv_to_l_@f2),w
 10371  0899  02F0               	subwf	(__tdiv_to_l_@f1),f
 10372  089A  0874               	movf	(__tdiv_to_l_@f2+1),w
 10373  089B  1C03               	skipc
 10374  089C  0F74               	incfsz	(__tdiv_to_l_@f2+1),w
 10375  089D  02F1               	subwf	(__tdiv_to_l_@f1+1),f
 10376  089E  0875               	movf	(__tdiv_to_l_@f2+2),w
 10377  089F  1C03               	skipc
 10378  08A0  0A75               	incf	(__tdiv_to_l_@f2+2),w
 10379  08A1  02F2               	subwf	(__tdiv_to_l_@f1+2),f
 10380                           	line	82
 10381                           	
 10382  08A2                     l8217:	
 10383  08A2  1420               	bsf	(__tdiv_to_l_@quot)+(0/8),(0)&7
 10384  08A3  28A4               	goto	l8219
 10385                           	line	83
 10386                           	
 10387  08A4                     l5314:	
 10388                           	line	84
 10389                           	
 10390  08A4                     l8219:	
 10391  08A4  3001               	movlw	01h
 10392  08A5                     u3155:
 10393  08A5  1003               	clrc
 10394  08A6  0DF0               	rlf	(__tdiv_to_l_@f1),f
 10395  08A7  0DF1               	rlf	(__tdiv_to_l_@f1+1),f
 10396  08A8  0DF2               	rlf	(__tdiv_to_l_@f1+2),f
 10397  08A9  3EFF               	addlw	-1
 10398  08AA  1D03               	skipz
 10399  08AB  28A5               	goto	u3155
 10400                           	line	85
 10401                           	
 10402  08AC                     l8221:	
 10403  08AC  3001               	movlw	low(01h)
 10404  08AD  02A4               	subwf	(__tdiv_to_l_@cntr),f
 10405  08AE  1D03               	btfss	status,2
 10406  08AF  28B1               	goto	u3161
 10407  08B0  28B2               	goto	u3160
 10408  08B1                     u3161:
 10409  08B1  2881               	goto	l8211
 10410  08B2                     u3160:
 10411                           	
 10412  08B2                     l5315:	
 10413                           	line	86
 10414  08B2  1FA5               	btfss	(__tdiv_to_l_@exp1),7
 10415  08B3  28B5               	goto	u3171
 10416  08B4  28B6               	goto	u3170
 10417  08B5                     u3171:
 10418  08B5  28DB               	goto	l8231
 10419  08B6                     u3170:
 10420                           	line	87
 10421                           	
 10422  08B6                     l8223:	
 10423  08B6  0825               	movf	(__tdiv_to_l_@exp1),w
 10424  08B7  3A80               	xorlw	80h
 10425  08B8  3E97               	addlw	-((-23)^80h)
 10426  08B9  1803               	skipnc
 10427  08BA  28BC               	goto	u3181
 10428  08BB  28BD               	goto	u3180
 10429  08BC                     u3181:
 10430  08BC  28C8               	goto	l8229
 10431  08BD                     u3180:
 10432                           	line	88
 10433                           	
 10434  08BD                     l8225:	
 10435  08BD  3000               	movlw	0
 10436  08BE  00F3               	movwf	(?__tdiv_to_l_+3)
 10437  08BF  3000               	movlw	0
 10438  08C0  00F2               	movwf	(?__tdiv_to_l_+2)
 10439  08C1  3000               	movlw	0
 10440  08C2  00F1               	movwf	(?__tdiv_to_l_+1)
 10441  08C3  3000               	movlw	0
 10442  08C4  00F0               	movwf	(?__tdiv_to_l_)
 10443                           
 10444  08C5  2908               	goto	l5311
 10445                           	
 10446  08C6                     l8227:	
 10447  08C6  2908               	goto	l5311
 10448                           	
 10449  08C7                     l5317:	
 10450  08C7  28C8               	goto	l8229
 10451                           	line	89
 10452                           	
 10453  08C8                     l5318:	
 10454                           	line	90
 10455                           	
 10456  08C8                     l8229:	
 10457  08C8  3001               	movlw	01h
 10458  08C9                     u3195:
 10459  08C9  1003               	clrc
 10460  08CA  0CA3               	rrf	(__tdiv_to_l_@quot+3),f
 10461  08CB  0CA2               	rrf	(__tdiv_to_l_@quot+2),f
 10462  08CC  0CA1               	rrf	(__tdiv_to_l_@quot+1),f
 10463  08CD  0CA0               	rrf	(__tdiv_to_l_@quot),f
 10464  08CE  3EFF               	addlw	-1
 10465  08CF  1D03               	skipz
 10466  08D0  28C9               	goto	u3195
 10467                           
 10468                           	line	91
 10469  08D1  3001               	movlw	(01h)
 10470  08D2  00F6               	movwf	(??__tdiv_to_l_+0)+0
 10471  08D3  0876               	movf	(??__tdiv_to_l_+0)+0,w
 10472  08D4  07A5               	addwf	(__tdiv_to_l_@exp1),f
 10473  08D5  1D03               	btfss	status,2
 10474  08D6  28D8               	goto	u3201
 10475  08D7  28D9               	goto	u3200
 10476  08D8                     u3201:
 10477  08D8  28C8               	goto	l8229
 10478  08D9                     u3200:
 10479  08D9  28FF               	goto	l8241
 10480                           	
 10481  08DA                     l5319:	
 10482                           	line	92
 10483  08DA  28FF               	goto	l8241
 10484                           	
 10485  08DB                     l5316:	
 10486                           	line	93
 10487                           	
 10488  08DB                     l8231:	
 10489  08DB  3018               	movlw	(018h)
 10490  08DC  0225               	subwf	(__tdiv_to_l_@exp1),w
 10491  08DD  1C03               	skipc
 10492  08DE  28E0               	goto	u3211
 10493  08DF  28E1               	goto	u3210
 10494  08E0                     u3211:
 10495  08E0  28F8               	goto	l8239
 10496  08E1                     u3210:
 10497                           	line	94
 10498                           	
 10499  08E1                     l8233:	
 10500  08E1  3000               	movlw	0
 10501  08E2  00F3               	movwf	(?__tdiv_to_l_+3)
 10502  08E3  3000               	movlw	0
 10503  08E4  00F2               	movwf	(?__tdiv_to_l_+2)
 10504  08E5  3000               	movlw	0
 10505  08E6  00F1               	movwf	(?__tdiv_to_l_+1)
 10506  08E7  3000               	movlw	0
 10507  08E8  00F0               	movwf	(?__tdiv_to_l_)
 10508                           
 10509  08E9  2908               	goto	l5311
 10510                           	
 10511  08EA                     l8235:	
 10512  08EA  2908               	goto	l5311
 10513                           	
 10514  08EB                     l5321:	
 10515                           	line	95
 10516  08EB  28F8               	goto	l8239
 10517                           	
 10518  08EC                     l5323:	
 10519                           	line	96
 10520                           	
 10521  08EC                     l8237:	
 10522  08EC  3001               	movlw	01h
 10523  08ED  00F6               	movwf	(??__tdiv_to_l_+0)+0
 10524  08EE                     u3225:
 10525  08EE  1003               	clrc
 10526  08EF  0DA0               	rlf	(__tdiv_to_l_@quot),f
 10527  08F0  0DA1               	rlf	(__tdiv_to_l_@quot+1),f
 10528  08F1  0DA2               	rlf	(__tdiv_to_l_@quot+2),f
 10529  08F2  0DA3               	rlf	(__tdiv_to_l_@quot+3),f
 10530  08F3  0BF6               	decfsz	(??__tdiv_to_l_+0)+0
 10531  08F4  28EE               	goto	u3225
 10532                           	line	97
 10533  08F5  3001               	movlw	low(01h)
 10534  08F6  02A5               	subwf	(__tdiv_to_l_@exp1),f
 10535  08F7  28F8               	goto	l8239
 10536                           	line	98
 10537                           	
 10538  08F8                     l5322:	
 10539                           	line	95
 10540                           	
 10541  08F8                     l8239:	
 10542  08F8  08A5               	movf	(__tdiv_to_l_@exp1),f
 10543  08F9  1D03               	skipz
 10544  08FA  28FC               	goto	u3231
 10545  08FB  28FD               	goto	u3230
 10546  08FC                     u3231:
 10547  08FC  28EC               	goto	l8237
 10548  08FD                     u3230:
 10549  08FD  28FF               	goto	l8241
 10550                           	
 10551  08FE                     l5324:	
 10552  08FE  28FF               	goto	l8241
 10553                           	line	99
 10554                           	
 10555  08FF                     l5320:	
 10556                           	line	100
 10557                           	
 10558  08FF                     l8241:	
 10559  08FF  0823               	movf	(__tdiv_to_l_@quot+3),w
 10560  0900  00F3               	movwf	(?__tdiv_to_l_+3)
 10561  0901  0822               	movf	(__tdiv_to_l_@quot+2),w
 10562  0902  00F2               	movwf	(?__tdiv_to_l_+2)
 10563  0903  0821               	movf	(__tdiv_to_l_@quot+1),w
 10564  0904  00F1               	movwf	(?__tdiv_to_l_+1)
 10565  0905  0820               	movf	(__tdiv_to_l_@quot),w
 10566  0906  00F0               	movwf	(?__tdiv_to_l_)
 10567                           
 10568  0907  2908               	goto	l5311
 10569                           	
 10570  0908                     l8243:	
 10571                           	line	101
 10572                           	
 10573  0908                     l5311:	
 10574  0908  0008               	return
 10575                           	opt stack 0
 10576                           GLOBAL	__end_of__tdiv_to_l_
 10577  0909                     	__end_of__tdiv_to_l_:
 10578 ;; =============== function __tdiv_to_l_ ends ============
 10579                           
 10580                           	signat	__tdiv_to_l_,8316
 10581                           	global	_isdigit
 10582                           psect	text624,local,class=CODE,delta=2
 10583                           global __ptext624
 10584  10D7                     __ptext624:
 10585                           
 10586 ;; *************** function _isdigit *****************
 10587 ;; Defined at:
 10588 ;;		line 13 in file "C:\Program Files (x86)\HI-TECH Software\PICC\9.82\sources\isdigit.c"
 10589 ;; Parameters:    Size  Location     Type
 10590 ;;  c               1    wreg     unsigned char 
 10591 ;; Auto vars:     Size  Location     Type
 10592 ;;  c               1    1[COMMON] unsigned char 
 10593 ;; Return value:  Size  Location     Type
 10594 ;;		None               void
 10595 ;; Registers used:
 10596 ;;		wreg, status,2, status,0
 10597 ;; Tracked objects:
 10598 ;;		On entry : 0/0
 10599 ;;		On exit  : 0/0
 10600 ;;		Unchanged: 0/0
 10601 ;; Data sizes:     COMMON   BANK0   BANK1   BANK3   BANK2
 10602 ;;      Params:         0       0       0       0       0
 10603 ;;      Locals:         2       0       0       0       0
 10604 ;;      Temps:          0       0       0       0       0
 10605 ;;      Totals:         2       0       0       0       0
 10606 ;;Total ram usage:        2 bytes
 10607 ;; Hardware stack levels used:    1
 10608 ;; This function calls:
 10609 ;;		Nothing
 10610 ;; This function is called by:
 10611 ;;		_sprintf
 10612 ;; This function uses a non-reentrant model
 10613 ;;
 10614                           psect	text624
 10615                           	file	"C:\Program Files (x86)\HI-TECH Software\PICC\9.82\sources\isdigit.c"
 10616                           	line	13
 10617                           	global	__size_of_isdigit
 10618  0015                     	__size_of_isdigit	equ	__end_of_isdigit-_isdigit
 10619                           	
 10620  10D7                     _isdigit:	
 10621                           	opt	stack 6
 10622                           ; Regs used in _isdigit: [wreg+status,2+status,0]
 10623                           ;isdigit@c stored from wreg
 10624  10D7  00F1               	movwf	(isdigit@c)
 10625                           	line	14
 10626                           	
 10627  10D8                     l8179:	
 10628  10D8  01F0               	clrf	(_isdigit$5232)
 10629                           	
 10630  10D9                     l8181:	
 10631  10D9  303A               	movlw	(03Ah)
 10632  10DA  0271               	subwf	(isdigit@c),w
 10633  10DB  1803               	skipnc
 10634  10DC  28DE               	goto	u3091
 10635  10DD  28DF               	goto	u3090
 10636  10DE                     u3091:
 10637  10DE  28E9               	goto	l8187
 10638  10DF                     u3090:
 10639                           	
 10640  10DF                     l8183:	
 10641  10DF  3030               	movlw	(030h)
 10642  10E0  0271               	subwf	(isdigit@c),w
 10643  10E1  1C03               	skipc
 10644  10E2  28E4               	goto	u3101
 10645  10E3  28E5               	goto	u3100
 10646  10E4                     u3101:
 10647  10E4  28E9               	goto	l8187
 10648  10E5                     u3100:
 10649                           	
 10650  10E5                     l8185:	
 10651  10E5  01F0               	clrf	(_isdigit$5232)
 10652  10E6  1403               	bsf	status,0
 10653  10E7  0DF0               	rlf	(_isdigit$5232),f
 10654  10E8  28E9               	goto	l8187
 10655                           	
 10656  10E9                     l5053:	
 10657                           	
 10658  10E9                     l8187:	
 10659  10E9  0C70               	rrf	(_isdigit$5232),w
 10660                           	
 10661  10EA  28EB               	goto	l5054
 10662                           	
 10663  10EB                     l8189:	
 10664                           	line	15
 10665                           	
 10666  10EB                     l5054:	
 10667  10EB  0008               	return
 10668                           	opt stack 0
 10669                           GLOBAL	__end_of_isdigit
 10670  10EC                     	__end_of_isdigit:
 10671 ;; =============== function _isdigit ends ============
 10672                           
 10673                           	signat	_isdigit,4216
 10674                           	global	_msecbase
 10675                           psect	text625,local,class=CODE,delta=2
 10676                           global __ptext625
 10677  10A4                     __ptext625:
 10678                           
 10679 ;; *************** function _msecbase *****************
 10680 ;; Defined at:
 10681 ;;		line 24 in file "C:\PIC_PROGS\C\PWM\msecbase.c"
 10682 ;; Parameters:    Size  Location     Type
 10683 ;;		None
 10684 ;; Auto vars:     Size  Location     Type
 10685 ;;		None
 10686 ;; Return value:  Size  Location     Type
 10687 ;;		None               void
 10688 ;; Registers used:
 10689 ;;		wreg
 10690 ;; Tracked objects:
 10691 ;;		On entry : 0/0
 10692 ;;		On exit  : 0/0
 10693 ;;		Unchanged: 0/0
 10694 ;; Data sizes:     COMMON   BANK0   BANK1   BANK3   BANK2
 10695 ;;      Params:         0       0       0       0       0
 10696 ;;      Locals:         0       0       0       0       0
 10697 ;;      Temps:          0       0       0       0       0
 10698 ;;      Totals:         0       0       0       0       0
 10699 ;;Total ram usage:        0 bytes
 10700 ;; Hardware stack levels used:    1
 10701 ;; This function calls:
 10702 ;;		Nothing
 10703 ;; This function is called by:
 10704 ;;		_pause
 10705 ;; This function uses a non-reentrant model
 10706 ;;
 10707                           psect	text625
 10708                           	file	"C:\PIC_PROGS\C\PWM\msecbase.c"
 10709                           	line	24
 10710                           	global	__size_of_msecbase
 10711  000F                     	__size_of_msecbase	equ	__end_of_msecbase-_msecbase
 10712                           	
 10713  10A4                     _msecbase:	
 10714                           	opt	stack 4
 10715                           ; Regs used in _msecbase: [wreg]
 10716                           	line	25
 10717                           	
 10718  10A4                     l8177:	
 10719                           ;msecbase.c: 25: OPTION_REG = 0b00000001;
 10720  10A4  3001               	movlw	(01h)
 10721  10A5  1683               	bsf	status, 5	;RP0=1, select bank1
 10722  10A6  1303               	bcf	status, 6	;RP1=0, select bank1
 10723  10A7  0081               	movwf	(129)^080h	;volatile
 10724                           	line	26
 10725                           ;msecbase.c: 26: TMR0 = 0xD;
 10726  10A8  300D               	movlw	(0Dh)
 10727  10A9  1283               	bcf	status, 5	;RP0=0, select bank0
 10728  10AA  1303               	bcf	status, 6	;RP1=0, select bank0
 10729  10AB  0081               	movwf	(1)	;volatile
 10730                           	line	27
 10731                           ;msecbase.c: 27: while(!T0IF);
 10732  10AC  28AD               	goto	l2943
 10733                           	
 10734  10AD                     l2944:	
 10735                           	
 10736  10AD                     l2943:	
 10737  10AD  1D0B               	btfss	(90/8),(90)&7
 10738  10AE  28B0               	goto	u3081
 10739  10AF  28B1               	goto	u3080
 10740  10B0                     u3081:
 10741  10B0  28AD               	goto	l2943
 10742  10B1                     u3080:
 10743                           	
 10744  10B1                     l2945:	
 10745                           	line	28
 10746                           ;msecbase.c: 28: T0IF = 0;
 10747  10B1  110B               	bcf	(90/8),(90)&7
 10748                           	line	29
 10749                           	
 10750  10B2                     l2946:	
 10751  10B2  0008               	return
 10752                           	opt stack 0
 10753                           GLOBAL	__end_of_msecbase
 10754  10B3                     	__end_of_msecbase:
 10755 ;; =============== function _msecbase ends ============
 10756                           
 10757                           	signat	_msecbase,88
 10758                           psect	text626,local,class=CODE,delta=2
 10759                           global __ptext626
 10760  0000                     __ptext626:
 10761                           	global	btemp
 10762  007E                     	btemp set 07Eh
 10763                           
 10764                           	DABS	1,126,2	;btemp
 10765                           	global	wtemp0
 10766  007E                     	wtemp0 set btemp


HI-TECH Software PICC Macro Assembler V9.82 build 9453 
Symbol Table                                                                                   Fri May 17 13:00:49 2019

                    pc 0002         ___bmul@product 0025                     _RD 0C60                     _WR 0C61  
         ___awdiv@sign 0021                     fsr 0004    ___wmul@multiplicand 0072           ___ftadd@exp1 0051  
         ___ftadd@exp2 0050           ___ftadd@sign 004F                    _GIE 005F                    _RA1 0029  
                  _RA2 002A                    _RA4 002C                    _PR2 0092                    _VPA 006E  
                  _VPB 006F                    _adc 00BC                    fsr0 0004                    indf 0000  
         ___awmod@sign 0076            lcd_goto@pos 0076                   l1051 0AFB                   l1060 0C2E  
                 l1052 0AFB                   l1061 0D3D                   l1053 0B00                   l1062 0D3E  
                 l1054 0B01                   l1063 0D3E                   l1055 0B10                   l1056 0B10  
                 l1057 0B16                   l1058 0C2A                   l1059 0C2A                   l4001 0EA5  
                 l4002 0E0F                   l4003 0FFF                   l4011 07E3                   l4004 0E83  
                 l4020 01A0                   l4012 0118                   l4005 0E82                   l4021 07FA  
                 l4013 0132                   l4006 0F6A                   l4030 0301                   l4022 01A1  
                 l4014 0199                   l4007 0FDE                   l4031 0322                   l4023 01BB  
                 l4015 0186                   l4008 0FDD                   l4040 0411                   l4032 0321  
                 l4024 01A3                   l4016 0150                   l4025 0758                   l4033 036C  
                 l4017 0198                   l4050 05A6                   l4034 043C                   l4042 042D  
                 l4026 01D8                   l4018 019F                   l4051 05C1                   l4043 04AC  
                 l4027 021A                   l4019 01A5                   l1900 1124                   l4060 0750  
                 l4052 05A7                   l4044 04B7                   l4036 03B3                   l4028 0323  
                 l4061 0736                   l4053 05CF                   l4045 050E                   l4037 03D3  
                 l4029 0291                   l4062 0757                   l4054 05E7                   l4046 04FF  
                 l4038 03DC                   l5111 159D                   l1903 10D6                   l4063 076E  
                 l4055 05F1                   l4047 0532                   l5120 1605                   l4064 0796  
                 l4056 061C                   l4048 0598                   l1912 1FF3                   l5121 15D5  
                 l5113 1595                   l4065 07BC                   l4057 0726                   l4049 0533  
                 l5210 1405                   l5130 160C                   l5114 16AB                   l1906 1190  
                 l4066 07BB                   l4058 0667                   l5211 13F9                   l5123 15EE  
                 l5115 15B2                   l5203 1133                   l1907 117B                   l1915 1FE8  
                 l4067 07E2                   l4059 0735                   l5212 140A                   l5220 1285  
                 l5132 1625                   l5124 15EF                   l5204 114C                   l1908 11A1  
                 l4068 07F9                   l5053 10E9                   l5061 10F0                   l5213 140B  
                 l5221 124D                   l5133 1626                   l5125 15FD                   l5117 15B1  
                 l1909 11A1                   l4069 07FF                   l5054 10EB                   l5310 0844  
                 l5062 10F9                   l5070 1176                   l5214 1424                   l5222 123F  
                 l5230 1FFE                   l5134 1634                   l5126 15F0                   l5118 15BB  
                 l5150 0826                   l1918 1230                   l5311 0908                   l5063 1103  
                 l5215 1432                   l5207 13DF                   l5223 1252                   l5231 1FFF  
                 l5135 1627                   l5127 1604                   l5119 15C0                   l5320 08FF  
                 l5312 085F                   l5064 1105                   l5216 143D                   l5208 13ED  
                 l5224 1253                   l5240 1383                   l5136 163B                   l5128 163C  
                 l5304 11B5                   l5321 08EB                   l5313 0881                   l5217 1444  
                 l5209 1433                   l5225 1274                   l5241 1375                   l5137 1651  
                 l5129 163C                   l5305 11A7                   l5322 08F8                   l5314 08A4  
                 l5226 1284                   l5234 131F                   l5242 1388                   l5138 1666  
                 l5170 00BE                   l5306 11BC                   l5323 08EC                   l5315 08B2  
                 l5067 1150                   l5227 128E                   l5235 1349                   l5243 1389  
                 l5139 168F                   l5171 00C3                   l5307 11D3                   l5324 08FE  
                 l5316 08DB                   l5068 115A                   l5180 1515                   l5236 1360  
                 l5244 13B4                   l5172 00D8                   l5317 08C7                   l5069 116F  
                 l5181 1527                   l5245 13C4                   l5173 00EF                   l5165 0039  
                 l5318 08C8                   l5182 154C                   l5246 13CE                   l5166 010B  
                 l2943 10AD                   l5319 08DA                   l5183 1538                   l5239 13C5  
                 l5167 0052                   l2944 10AD                   l5360 17BE                   l5440 1485  
                 l5184 1545                   l5176 14DD                   l5280 12C2                   l5168 0092  
                 l2945 10B1                   l5361 17BF                   l5353 16D0                   l5441 146F  
                 l5433 1459                   l5185 1539                   l5177 1565                   l5281 12C3  
                 l5169 00A7                   l2946 10B2                   l5362 17D1                   l5354 17FF  
                 l5442 148C                   l5186 154B                   l5178 1528                   l5282 12D4  
                 l5363 17F6                   l5355 16F2                   l5443 1498                   l5435 1451  
                 l5187 155C                   l5179 1514                   l5283 12E2                   l5275 129D  
                 l5364 17E2                   l5356 173A                   l5444 148D                   l5436 14BF  
                 l5284 12ED                   l5276 12A7                   l5365 17EF                   l5357 1792  
                 l5445 149C                   l5437 1467                   l5285 12F4                   l5277 12E3  
                 l5366 17E3                   l5358 17A9                   l5446 14A6                   l5438 145A  
                 l5278 12BD                   l5367 17F5                   l5359 17D2                   l5447 14BF  
                 l5439 146E                   l5279 12B1                   l8201 085E                   l9001 052B  
                 l8211 0881                   l8203 0860                   l9011 05B4                   l9003 0533  
                 l8221 08AC                   l8213 088A                   l8205 0866                   l8301 10F4  
                 l3973 0012                   l9021 05E7                   l9013 05BA                   l9005 0591  
                 l9101 1217                   l3974 0006                   l8223 08B6                   l8231 08DB  
                 l8215 0898                   l8207 0875                   l8311 1105                   l8303 10F9  
                 l3975 001D                   l9031 06C5                   l9023 0608                   l9015 05C1  
                 l9007 0598                   l9111 122A                   l9103 1218                   l3976 001D  
                 l8233 08E1                   l8241 08FF                   l8225 08BD                   l8217 08A2  
                 l8209 0877                   l8305 10FB                   l8321 116F                   l8313 114D  
                 l8401 14EF                   l9041 0750                   l9033 06CB                   l9025 0615  
                 l9017 05CF                   l9009 05A7                   l9105 1219                   l9201 0CBF  
                 l9121 0AC1                   l9113 0AB4                   l8243 0908                   l8235 08EA  
                 l8227 08C6                   l8219 08A4                   l8251 16D0                   l8307 10FD  
                 l8323 1176                   l8315 1150                   l8331 1458                   l8411 1503  
                 l8403 14F0                   l3995 09EF                   l9051 0796                   l9035 0736  
                 l9027 061C                   l9019 05DE                   l9043 0758                   l9107 121F  
                 l9211 0D27                   l9203 0CC8                   l9131 0ACC                   l9123 0AC3  
                 l9115 0ABC                   l3996 0AB3                   l8181 10D9                   l8237 08EC  
                 l8229 08C8                   l8261 172E                   l8253 16E8                   l8245 16AC  
                 l8309 1103                   l8317 1154                   l8341 147D                   l8333 145A  
                 l8325 1445                   l8421 152E                   l8413 150A                   l8405 14F6  
                 l8501 1274                   l8173 135D                   l3997 0A7F                   l9053 07B3  
                 l9045 0760                   l9037 0743                   l9029 0667                   l9061 07E3  
                 l9109 1225                   l9213 0D2D                   l9205 0CCE                   l9141 0AEC  
                 l9133 0AD1                   l9125 0AC5                   l9117 0ABD                   l3998 0A7E  
                 l8183 10DF                   l8239 08F8                   l8191 0827                   l8271 176F  
                 l8263 1730                   l8255 16F1                   l8247 16C6                   l8319 1161  
                 l8351 14BA                   l8343 148D                   l8335 1467                   l8327 1449  
                 l8431 1550                   l8423 1537                   l8415 1513                   l8407 14FD  
                 l8503 127D                   l8511 1FFB                   l8175 135F                   l9055 07BC  
                 l9047 0768                   l9039 0749                   l9063 07FA                   l9071 11D4  
                 l9215 0D33                   l9207 0D00                   l9151 0B01                   l9143 0AF0  
                 l9135 0ADA                   l9127 0AC6                   l9119 0AC0                   l8177 10A4  
                 l8185 10E5                   l8193 083A                   l8281 17BD                   l8273 1791  
                 l8265 1735                   l8257 16F2                   l8249 16CF                   l8353 14BE  
                 l8345 1498                   l8337 146F                   l8329 1451                   l8433 155C  
                 l8425 1539                   l8417 1515                   l8409 14FF                   l8505 1285  
                 l8513 1FFE                   l8521 131F                   l9065 07FF                   l9057 07D0  
                 l9049 078B                   l9081 11E0                   l9073 11D8                   l9209 0D1E  
                 l9161 0B6E                   l9153 0B05                   l9145 0AF3                   l9137 0AE3  
                 l9129 0AC7                   l8187 10E9                   l8179 10D8                   l8195 0843  
                 l8291 17E3                   l8283 17BF                   l8275 17A3                   l8267 173A  
                 l8259 1726                   l8347 14A0                   l8339 1473                   l8435 1565  
                 l8427 1545                   l8419 1528                   l8451 13D6                   l8507 128E  
                 l8515 1FFF                   l8531 135B                   l8523 1323                   l9059 07DB  
                 l9067 1FEA                   l9091 11F9                   l9083 11E1                   l9075 11DB  
                 l9171 0BB0                   l9163 0B72                   l9155 0B06                   l9147 0AF7  
                 l9139 0AE8                   l8189 10EB                   l8197 0844                   l8293 17EF  
                 l8277 17AD                   l8285 17D2                   l8269 1743                   l8349 14A8  
                 l8429 154C                   l8461 13EF                   l8453 13DF                   l8509 1FF4  
                 l8533 135D                   l8525 1349                   l8517 12F5                   l8541 1375  
                 l8701 167B                   l9069 1FED                   l9093 11FC                   l9085 11EA  
                 l9077 11DC                   l9181 0C15                   l9173 0BB6                   l9165 0B81  
                 l9157 0B17                   l9149 0AF9                   l8199 0855                   l8287 17D8  
                 l8295 17F6                   l8279 17B4                   l8471 140B                   l8463 13F5  
                 l8455 13E3                   l8535 1360                   l8527 134B                   l8519 12F9  
                 l8551 13B2                   l8543 1383                   l8631 0003                   l8703 168B  
                 l8711 0031                   l9095 1206                   l9087 11EE                   l9079 11DF  
                 l9191 0C56                   l9183 0C1B                   l9175 0BE8                   l9167 0B87  
                 l9159 0B3E                   l8297 17FF                   l8289 17E1                   l8393 14C0  
                 l8473 141C                   l8465 13F9                   l8481 1433                   l8457 13E8  
                 l8449 13CF                   l8529 134D                   l8553 13B4                   l8545 1389  
                 l8537 1361                   l8561 128F                   l8633 0006                   l8705 168F  
                 l8641 1580                   l8721 0052                   l8713 0038                   l8801 09EF  
                 l9097 1209                   l9089 11EF                   l9193 0C86                   l9185 0C24  
                 l9177 0C06                   l9169 0BA7                   l8299 10EF                   l8395 14D3  
                 l8483 1437                   l8475 1422                   l8467 1400                   l8459 13ED  
                 l8491 123B                   l8555 13BD                   l8547 1392                   l8539 1371  
                 l8571 12AD                   l8563 1294                   l8635 000B                   l8707 16AB  
                 l8651 159D                   l8643 1584                   l8731 008D                   l8723 007F  
                 l8715 0039                   l8811 0AB3                   l8803 09F5                   l9099 1213  
                 l9195 0C8A                   l9187 0C28                   l9179 0C0F                   _ADON 00F8  
                 l8397 14DC                   l8485 143D                   l8477 1424                   l8469 1405  
                 l8493 123F                   l8549 13A4                   l8557 13C5                   l8581 12CD  
                 l8573 12B1                   l8565 129D                   l8637 0012                   l8661 15BA  
                 l8653 15A1                   l8645 158A                   l8741 00B7                   l8733 0092  
                 l8725 0080                   l8717 004A                   l8709 001E                   l8805 0A63  
                 l8821 0E0D                   l8813 0D44                   l8901 019D                   l9197 0C99  
                 l9189 0C2F                   l8399 14DD                   l8487 1444                   l8479 142B  
                 l8495 124D                   l8559 13CE                   l8591 12ED                   l8583 12D4  
                 l8575 12B8                   l8567 12A1                   l8671 15DF                   l8663 15BF  
                 l8655 15A7                   l8647 1595                   l8639 1566                   l8751 00E0  
                 l8743 00BE                   l8735 0096                   l8727 0081                   l8719 0051  
                 l8807 0A7D                   l8831 0E83                   l8823 0E0E                   l8815 0D48  
                 l8911 01D3                   l8903 01A4                   l9199 0C9F                   l8497 1253  
                 l8489 1231                   l8593 12F4                   l8585 12DB                   l8577 12BD  
                 l8569 12A7                   l8681 160C                   l8673 15E5                   l8665 15C1  
                 l8657 15B2                   l8649 159C                   l8753 00E8                   l8745 00C3  
                 l8737 00A7                   l8729 0087                   l8761 112A                   l8809 0A7F  
                 l8841 0F69                   l8833 0EA4                   l8825 0E0F                   l8817 0D4A  
                 l8921 0215                   l8913 01D8                   l8905 01A5                   l8499 1265  
                 l8579 12C3                   l8587 12E3                   l8691 1640                   l8683 1616  
                 l8675 15F0                   l8667 15C7                   l8659 15B6                   l8755 00EF  
                 l8747 00C7                   l8739 00AF                   l8763 1133                   l8771 11B5  
                 l8851 0FFF                   l8843 0F6A                   l8827 0E16                   l8819 0D51  
                 l8835 0EA5                   l8931 0258                   l8923 021A                   l8915 01E3  
                 l8907 01BB                   l8589 12E7                   l8693 1651                   l8685 161C  
                 l8677 15FD                   l8669 15D5                   l8757 010B                   l8749 00D8  
                 l8765 114C                   l8773 11BC                   l8781 111D                   l8845 0F71  
                 l8837 0EAC                   l8829 0E81                   l8853 0808                   l8861 10C7  
                 l8941 02AA                   l8933 026F                   l8925 021E                   l8917 01EB  
                 l8909 01CD                   l8695 1655                   l8687 1627                   l8679 1605  
                 l8759 1125                   l8775 11D3                   l8767 11A2                   l8783 111E  
                 l8791 090C                   l8847 0FDC                   l8839 0F68                   l8855 080C  
                 l8863 1177                   l8871 1FDF                   l8943 02E3                   l8935 0286  
                 l8927 0225                   l8951 0323                   l8919 0200                   l8697 1666  
                 l8689 1634                   l8769 11A7                   l8785 111F                   l8777 1107  
                 l8793 0912                   l8849 0FDE                   l8857 0826                   l8865 117B  
                 l8873 1FE2                   l8961 03A3                   l8953 0332                   l8945 02F8  
                 l8937 028A                   l8929 0252                   l8881 012B                   l8699 1677  
                 l8787 1122                   l8779 1110                   l8795 09D3                   l8859 10C4  
                 l8867 1189                   l8971 03F5                   l8963 03B3                   l8955 036C  
                 l8947 0301                   l8939 0291                   l8891 014B                   l8883 0132  
                 l8875 010F                   l8789 1123                   l8797 09ED                   l8869 1190  
                 l8981 04A9                   l8973 0411                   l8965 03CA                   l8957 037B  
                 l8949 0318                   l8893 0150                   l8885 0134                   l8877 0118  
                 l8799 09EE                   l8991 04FE                   l8983 04AC                   l8975 042D  
                 l8967 03D3                   l8959 0384                   l8895 017F                   l8887 0142  
                 l8879 011E                   STR_1 1086                   STR_2 109D                   l8993 04FF  
                 l8985 04AF                   l8977 0435                   l8969 03DC                   l8897 0186  
                 l8889 0145                   STR_3 1096                   STR_4 109D                   l8995 0507  
                 l8987 04B6                   l8979 043C                   l8899 0199                   STR_5 1096  
                 l8997 050E                   l8989 04B7                   l8999 0520                   _T0IF 005A  
                 u3100 10E5                   u3101 10E4                   u3110 083A                   u3111 0839  
                 u3200 08D9                   u3120 0855                   u3201 08D8                   u3121 0854  
                 u3210 08E1                   u4010 13C3                   u3211 08E0                   u4011 13C2  
                 u3140 0898                   u3300 17AD                   u4100 12E7                   u4020 1294  
                 u3141 0897                   u3301 17AC                   u4005 13B5                   u4021 1293  
                 u3230 08FD                   u3310 17B4                   u4030 12A1                   u3231 08FC  
                 u3135 0883                   u3311 17B3                   u4031 12A0                   u3080 10B1  
                 u3160 08B2                   u3240 16C6                   u4040 12AD                   u4200 15A7  
                 u5000 07B3                   u3081 10B0                   u3225 08EE                   u3161 08B1  
                 u3145 0894                   u3241 16C5                   u4041 12AC                   u4201 15A6  
                 u5001 07B2                   u3090 10DF                   u3170 08B6                   u3330 17D0  
                 u3250 16E8                   u4210 15B1                   u5010 07D0                   u3091 10DE  
                 u3171 08B5                   u3155 08A5                   u3331 17CF                   u3251 16E7  
                 u4211 15B0                   u5011 07CF                   u3180 08BD                   u3340 17D8  
                 u3420 116E                   u3500 149C                   u4060 12C1                   u4300 160B  
                 u4220 15BA                   u5020 07F8                   u3181 08BC                   u3341 17D7  
                 u3325 17C0                   u3421 116D                   u3405 115B                   u3501 149B  
                 u4061 12C0                   u4301 160A                   u4221 15B9                   u5021 07F7  
                 u5005 07AF                   u3270 176F                   u3510 14A0                   u3430 1449  
                 u4070 12CD                   u4150 001C                   u4230 15BF                   u5030 0AFF  
                 u3271 176E                   u3415 1162                   u3511 149F                   u4071 12CC  
                 u4055 12B2                   u4151 001B                   u4231 15BE                   u5031 0AFE  
                 u3360 17F4                   u3520 14B1                   u3440 1450                   u4320 161C  
                 u4240 15D4                   u4160 1584                   u4400 0031                   u5040 0B16  
                 u3361 17F3                   u3265 173C                   u3441 144F                   u4321 161B  
                 u4241 15D3                   u4401 0030                   u5105 0C45                   u5041 0B15  
                 u3290 17A9                   u3370 10F4                   u3530 14BE                   u4090 12E1  
                 u4330 1624                   u4170 158A                   u4410 004A                   u3195 08C9  
                 u3355 17E5                   u3291 17A8                   u3275 176B                   u3371 10F3  
                 u4091 12E0                   u4075 12C9                   u4155 0018                   u4331 1623  
                 u4315 160D                   u4171 1589                   u4411 0049                   u5115 0C8F  
                 u3380 1102                   u3460 146D                   u3700 154A                   u3620 14D3  
                 u4260 15E5                   u4180 1594                   u4420 0062                   u3285 1795  
                 u3381 1101                   u3525 14AD                   u3461 146C                   u3701 1549  
                 u3621 14D2                   u4085 12D5                   u4261 15E4                   u4181 1593  
                 u4501 00D0                   u3390 1154                   u3710 1550                   u3630 14E8  
                 u4350 163A                   u4270 15ED                   u4190 15A1                   u4502 00D7  
                 u4430 0074                   u3391 1153                   u3455 145F                   u4351 1639  
                 u4271 15EC                   u4255 15D6                   u5055 0B1C                   u3480 148B  
                 u3640 1503                   u4360 1640                   u4440 0096                   u4600 0D48  
                 u5080 0C2E                   u3481 148A                   u3641 1502                   u4361 163F  
                 u4345 1628                   u4441 0095                   u4425 005E                   u4601 0D47  
                 u5081 0C2D                   u5065 0B2D                   u3650 150A                   u3810 1431  
                 u3730 13D6                   u4370 1655                   u4290 1603                   u4530 00EE  
                 u4610 0D51                   u3475 147E                   u3651 1509                   u3635 14E4  
                 u3811 1430                   u3731 13D5                   u4371 1654                   u4291 1602  
                 u4531 00ED                   u4515 00D9                   u4451 009F                   u4435 0070  
                 u4611 0D50                   u5075 0B77                   u3820 1437                   u3740 13E3  
                 u3900 12F9                   u4452 00A6                   u4540 112A                   u4620 0E16  
                 u4700 01D3                   u3805 1425                   u3741 13E2                   u3901 12F8  
                 u4381 1670                   u4285 15F1                   u4525 00E1                   u4541 1129  
                 u4621 0E15                   u4701 01D2                   u3670 1526                   u3750 13F5  
                 u3830 123B                   u4390 167B                   u4382 1677                   u4630 0EAC  
                 u4710 0200                   u3495 1490                   u3671 1525                   u3751 13F4  
                 u3831 123A                   u3911 1311                   u4391 167A                   u4631 0EAB  
                 u4711 01FF                   u5095 0C34                   u3680 152E                   u3920 1323  
                 u3912 1312                   u4480 00BD                   u4560 11BB                   u4640 0F71  
                 u4800 03A3                   u4720 0225                   u3681 152D                   u3665 1516  
                 u3921 1322                   u3913 1317                   u4481 00BC                   u4465 00A8  
                 u4561 11BA                   u4641 0F70                   u4801 03A2                   u4721 0224  
                 u3770 1409                   u3850 1251                   u3914 1318                   u4490 00C7  
                 u4650 11A0                   u4810 03B2                   u4730 023B                   u3771 1408  
                 u3851 1250                   u3931 133B                   u4491 00C6                   u4475 00B0  
                 u4555 11A8                   u4651 119F                   u4811 03B1                   u3860 1265  
                 u3940 135B                   u3932 133C                   u4580 0912                   u4900 05CE  
                 u4820 03CA                   u4740 028A                   u4660 011E                   u3765 13FA  
                 u3861 1264                   u3845 1241                   u3941 135A                   u3933 1341  
                 u4581 0911                   u4901 05CD                   u4821 03C9                   u4741 0289  
                 u4661 011D                   u3790 141C                   u3934 1342                   u3950 1371  
                 u4590 09F5                   u4910 05DE                   u4830 04B5                   u4750 02F8  
                 u4670 0142                   u3695 153B                   u3791 141B                   u3951 1370  
                 u4575 1113                   u4591 09F4                   u4911 05DD                   u4831 04B4  
                 u4815 03AE                   u4751 02F7                   u4735 0236                   u4671 0141  
                 u3880 1283                   u4920 0608                   u4760 0318                   u4680 0197  
                 u3785 140C                   u3881 1282                   u3865 1261                   u3945 1357  
                 u4905 05CA                   u4761 0317                   u4681 0196                   u3890 1FFB  
                 u3970 1387                   u4850 04FD                   u4770 0332                   u4690 01CD  
                 u3795 1418                   u3875 1275                   u3891 1FFA                   u3971 1386  
                 u4915 05DA                   u4851 04FC                   u4771 0331                   u4691 01CC  
                 u4860 050D                   u4780 037B                   u3965 1377                   u4861 050C  
                 u4845 04BC                   u4781 037A                   u3990 13A4                   u4950 0734  
                 u4870 0520                   u4790 0384                   u3991 13A3                   u4951 0733  
                 u4935 0678                   u4871 051F                   u4855 04F9                   u4791 0383  
                 u4775 032E                   u4960 0756                   u3985 138B                   u4961 0755  
                 u4945 06D0                   u4785 0377                   u4970 0760                   u4890 05A5  
                 u3995 13A0                   u4971 075F                   u4891 05A4                   u4980 0768  
                 u4981 0767                   u4885 0544                   u4990 078B                   u4991 078A  
                 u4995 0787                   _TMR0 0001                   _WREN 0C62                   _main 0AB4  
         ___ftpack@arg 0070                   _read 006C           ___ftpack@exp 0073                   btemp 007E  
                 start 0000           _sprintf$4724 00A0      ___bmul@multiplier 0026           ___ftmul@cntr 0043  
         ___ftmul@sign 0044           ___fttol@exp1 0034           ___fttol@lval 0030                  ?_main 0070  
      __end_of___awdiv 1445                  _EEADR 010D        __end_of___ftadd 16AC        __end_of___awmod 12F5  
                _CARRY 0018        __end_of___ftneg 2000                  _ANSEL 0188        __end_of___lldiv 13CF  
      __end_of___ftmul 010C        ___awdiv@divisor 0077        __end_of___llmod 128F        __end_of___ftsub 0827  
      __end_of___fttol 1566                  _T2CON 0012        ___awdiv@counter 0020                  _PORTD 0008  
                _TRISA 0085                  _TRISB 0086                  _TRISC 0087                  _TRISD 0088  
                _TRISE 0089           ___lltoft@exp 007D          ___awtoft@sign 007D                  _scale 0D41  
      __end_of_isdigit 10EC                  _pause 0003          ___ftpack@sign 0074                  pclath 000A  
                status 0003                  wtemp0 007E        __end_of_sprintf 0800           __end_of_main 0D41  
               ??_main 00B7          ___fttol@sign1 002F   __size_of__tdiv_to_l_ 00E2                 _ADCON0 001F  
               _ADCON1 009F       ___llmod@dividend 0024                 ?_scale 0045                 _ADRESH 001E  
               _ADRESL 009E                 _EEDATA 010C                 _CCPR1L 0015                 ?_pause 0070  
               _CCPR2L 001B                 _EECON1 018C                 _EECON2 018D       ___awdiv@dividend 0079  
     __end_of___awtoft 114D       __end_of___ftpack 14C0                 _ANSELH 0189       __end_of___lltoft 11D4  
               _OSCCON 008F                 _TMR2IE 0461                 _TMR2IF 0061                 _TMR2ON 0092  
     __end_of_lcd_init 1231       __end_of_lcd_goto 1FE9                 ___bmul 10EC       __end_of_lcd_puts 11A2  
               ___ftge 12F5                 ___wmul 114D              ??___awdiv 007B              ??___ftadd 004B  
            ??___awmod 0074              ??___ftneg 0073              ??___lldiv 0078              ??___ftmul 003B  
            ??___llmod 0028              ??___ftsub 007E              ??___fttol 002B                 _buffer 00C2  
               _fround 0909       ___awdiv@quotient 0022        ___awmod@divisor 0070        ___awmod@counter 0075  
     __end_of_msecbase 10B3                 clrloop 0801  ___ftmul@f3_as_product 0040              ??_isdigit 0070  
               pause@x 0072              ??_sprintf 0066             ___ftadd@f1 0045             ___ftadd@f2 0048  
           ___ftge@ff1 0070             ___ftge@ff2 0073             ___ftneg@f1 0070             ___awtoft@c 0078  
  ___bmul@multiplicand 0024             ___ftmul@f1 0035             ___ftmul@f2 0038             ___ftsub@f1 0055  
           ___ftsub@f2 0052             ___fttol@f1 0027         __pcstackCOMMON 0070             ___lltoft@c 0078  
        __end_of_scale 1000          __end_of_pause 001E             __div_to_l_ 16AC     __size_of_lcd_clear 0013  
   __size_of_lcd_putch 000B        __div_to_l_@exp1 0025     __size_of_lcd_write 001F        __div_to_l_@cntr 0024  
         sprintf@integ 00A7                ??_scale 0048                ??_pause 0072        __div_to_l_@quot 0020  
           __pbssBANK0 006C             __pbssBANK1 00BC          __div_to_l_@f1 0070          __div_to_l_@f2 0073  
           __pmaintext 0AB4                ?___bmul 0024                ?___ftge 0070                ?___wmul 0070  
              _CCP1CON 0017                _CCP2CON 001D                ?_fround 0052              ?___awtoft 0078  
            ?___ftpack 0070              ?___lltoft 0078                _GO_DONE 00F9              ?_lcd_init 0070  
            ?_lcd_goto 0070              ?_lcd_puts 0076              ?_msecbase 0070             _scale$5663 004A  
    __end_of_lcd_clear 10D7        __size_of___bmul 001A        __size_of___ftge 006C      __end_of_lcd_putch 1FF4  
              ___awdiv 13CF                ___ftadd 1566                ___awmod 128F      __end_of_lcd_write 1125  
              ___ftneg 1FF4                ___lldiv 1361        __size_of___wmul 002A                ___ftmul 001E  
              ___llmod 1231                ___ftsub 0808                ___fttol 14C0             ??___awtoft 007B  
           ??___ftpack 0075        __size_of_fround 01AB             ??___lltoft 007C            ?__div_to_l_ 0070  
              _dpowers 1010                _isdigit 10D7       ___awmod@dividend 0072                _sprintf 010C  
           ??_lcd_init 0076             ??_lcd_goto 0076             ??_lcd_puts 0078   end_of_initialization 10C0  
           ??_msecbase 0070        ___lldiv@divisor 0070        ___lldiv@counter 007D         __tdiv_to_l_@f1 0070  
       __tdiv_to_l_@f2 0073          ??__tdiv_to_l_ 0076             _porcentaje 00BF             lcd_putch@c 0076  
  __size_of__div_to_l_ 0154             lcd_write@c 0075            ___ftmul@exp 003F         __end_of___bmul 1106  
       __end_of___ftge 1361         __end_of___wmul 1177         __end_of_fround 0AB4    start_initialization 10B3  
  __end_of__tdiv_to_l_ 0909     lcd_init@init_value 0077        ___llmod@divisor 0020        ___llmod@counter 0029  
             ??___bmul 007C               ??___ftge 0076               ??___wmul 0074               ??_fround 0055  
           fround@prec 0061      __size_of___awtoft 0028      __size_of___ftpack 007B           pause@usvalue 0070  
    __size_of___lltoft 0032          __pcstackBANK0 0020          __pcstackBANK1 00A0           _isdigit$5232 0070  
    __size_of_lcd_init 005D      __size_of_lcd_goto 000B            sprintf@_val 00AA            sprintf@flag 00A5  
    __size_of_lcd_puts 002B            sprintf@fval 00B3            sprintf@prec 00B1      __size_of_msecbase 000F  
             ?___awdiv 0077               ?___ftadd 0045              __ptext600 1FDE              __ptext601 1177  
            __ptext610 1566              __ptext602 10C4              __ptext611 0003              __ptext603 0808  
             ?___awmod 0070              __ptext620 114D              __ptext612 128F              __ptext604 0D41  
            __ptext621 10EC              __ptext613 1361              __ptext605 0909              __ptext622 16AC  
            __ptext614 12F5              __ptext606 1106              __ptext623 0827              __ptext615 1FF4  
            __ptext607 11A2              __ptext624 10D7              __ptext616 1231              __ptext608 1125  
            __ptext625 10A4              __ptext617 13CF              __ptext609 001E              __ptext626 0000  
            __ptext618 14C0              __ptext619 1445              __ptext597 11D4              __ptext598 1FE9  
            __ptext599 010C               ?___ftneg 0070               ?___lldiv 0070               ?___ftmul 0035  
             ?___llmod 0020               ?___ftsub 0052              __npowers_ 1038               ?___fttol 0027  
            _lcd_clear 10C4              __pstrings 1000            __tdiv_to_l_ 0827              _lcd_putch 1FE9  
            _lcd_write 1106           ??__div_to_l_ 0076               ?_isdigit 0070               ?_sprintf 0062  
       __size_of_scale 02BF         __size_of_pause 001B         ___wmul@product 0074     __end_of__div_to_l_ 1800  
           ?_lcd_clear 0070             ?_lcd_putch 0070            __stringbase 100F             ?_lcd_write 0070  
    ___wmul@multiplier 0070              lcd_puts@s 0076       __size_of___awdiv 0076       __size_of___ftadd 0146  
     __size_of___awmod 0066       __size_of___ftneg 000C       __size_of___lldiv 006E       __size_of___ftmul 00EE  
     __size_of___llmod 005E       __size_of___ftsub 001F       __size_of___fttol 00A6               ___awtoft 1125  
             ___ftpack 1445            _fround$5661 005E            _fround$5662 005B               ___lltoft 11A2  
           sprintf@exp 00AE       __size_of_isdigit 0015               __powers_ 105F               _lcd_init 11D4  
             _lcd_goto 1FDE               _lcd_puts 1177       __size_of_sprintf 06F4          __size_of_main 028D  
             _msecbase 10A4               clear_ram 0800            ??_lcd_clear 0076            ??_lcd_putch 0076  
          ??_lcd_write 0074               isdigit@c 0071               scale@scl 004D              sprintf@ap 00A4  
     __tdiv_to_l_@exp1 0025       __tdiv_to_l_@cntr 0024              sprintf@sp 00B0       __tdiv_to_l_@quot 0020  
     ___lldiv@dividend 0074              stringcode 100A           ?__tdiv_to_l_ 0070             _OPTION_REG 0081  
             sprintf@c 00B6               sprintf@f 0062       ___lldiv@quotient 0079               stringdir 100A  
             stringtab 1000  
